Script started on 2021-10-28 11:44:13-04:00 [TERM="xterm-256color" TTY="/dev/pts/12" COLUMNS="150" LINES="39"]
epotapo1@remote05:~/i220a/submit/lab8$ cd exercises/
epotapo1@remote05:~/i220a/submit/lab8/exercises$ ls
1  2  3  4  5  6  cpuid1  cpuid2  parity  rip  rotate  rsp
epotapo1@remote05:~/i220a/submit/lab8/exercises$ cd rotate/
epotapo1@remote05:~/i220a/submit/lab8/exercises/rotate$ ls
Makefile  rotate.c
epotapo1@remote05:~/i220a/submit/lab8/exercises/rotate$ emacs rotate.c 
[?1049h[22;0;0t[?12;25h[?1h=[H[2J[39d[K[?1l>[?12l[?25h[?1049l[23;0;0t[39;49m[?1049h[22;0;0t[?12;25h[?1h=[H[2J[38d[?25l[30m[47m-UUU:----F1  [39;49m[1m[30m[47m*scratch*   [0m[39;49m[30m[47m   All L1     (Fundamental) -------------------------------------------------------------------------------------------------[39;49m
[A[2d[?12l[?25h[?12;25h[39d[?25lLoading /etc/emacs/site-start.d/00debian.el (source)...done[K[H
[?12l[?25h[?12;25h[39;33H[?25l50a2ps.el (source)...[K[H
[?12l[?25h[?12;25h[39;54H[?25ldone[H
[?12l[?25h[?12;25h[39;36H[?25lsymptote.el (source)...[H
[?12l[?25h[?12;25h[39;59H[?25ldone[H
[?12l[?25h[?12;25h[39;36H[?25lutoconf.el (source)...[K[H
[?12l[?25h[?12;25h[39;58H[?25ldone[H
[?12l[?25h[?12;25h[39;35H[?25lcmake-data.el (source)...[K[H
[?12l[?25h[?12;25h[39;60H[?25ldone[H
[?12l[?25h[?12;25h[39;35H[?25ldevhelp.el (source)...[K[H
[?12l[?25h[?12;25h[39;57H[?25ldone[H
[?12l[?25h[?12;25h[39;36H[?25lictionaries-common.el (source)...[H
[?12l[?25h[?12;25h[39;9H[?25ldebian-ispell...[K[H
[?12l[?25h[?12;25h[39;9H[?25l/var/cache/dictionaries-common/emacsen-ispell-default.el (source)...[H
[?12l[?25h[?12;25h[39;77H[?25ldone[H
[?12l[?25h[?12;25h[39;9H[?25ldebian-ispell...done[K[H
[?12l[?25h[?12;25h[39;9H[?25l/var/cache/dictionaries-common/emacsen-ispell-dicts.el (source)...[H
[?12l[?25h[?12;25h[39;75H[?25ldone[H
[?12l[?25h[?12;25h[39;10H[?25letc/emacs/site-start.d/50dictionaries-common[6P[H
[?12l[?25h[?12;25h[39;35H[?25lerlang-mode.el (source)...[K[H
[?12l[?25h[?12;25h[39;61H[?25ldone[H
[?12l[?25h[?12;25h[39;35H[?25lhaskell-mode.el (source)...[K[H
[?12l[?25h[?12;25h[39;10H[?25lusr/share/emacs/site-lisp/elpa/haskel[34@l-mode-16.1/haskell-mode-autoloads[H
[?12l[?25h[?12;25h[39;96H[?25ldone[H
[?12l[?25h[?12;25h[39;10H[?25letc/emacs/site-start.d/50haskell-mode[34P[H
[?12l[?25h[?12;25h[39;35H[?25llatex-cjk-common.el (source)...[H
[?12l[?25h[?12;25h[39;10H[?25lusr/share/emacs/site-lisp/latex-cjk-commo[9@n/cjk-enc[H
[?12l[?25h[?12;25h[39;75H[?25ldone[H
[?12l[?25h[?12;25h[39;10H[?25letc/emacs/site-start.d/50latex-cjk-common[9P[H
[?12l[?25h[?12;25h[39;45H[?25lthai.el (source)...[K[H
[?12l[?25h[?12;25h[39;64H[?25ldone[H
[?12l[?25h[?12;25h[39;35H[?25lpsvn.el (source)...[K[H
[?12l[?25h[?12;25h[39;54H[?25ldone[H
[?12l[?25h[?12;25h[39;36H[?25lython-docutils.el (source)...[H
[?12l[?25h[?12;25h[39;65H[?25ldone[H
[?12l[?25h[?12;25h[39;35H[?25ltcsh.el (source)...[K[H
[?12l[?25h[?12;25h[39;54H[?25ldone[H
[?12l[?25h[?12;25h[39;36H[?25lexlive-lang-english.el (source)...[H
[?12l[?25h[?12;25h[39;70H[?25ldone[H
[?12l[?25h[?12;25h[>0c[?2004h[?1004h[39d[?25lFor information about GNU Emacs and the GNU system, type C-h C-a.[K[H
[?12l[?25h[?12;25h[39d[?25lFor information about GNU Emacs and the GNU system, type C-h C-a.[K[H[7mFile Edit Options Buffers Tools C Help                                                                                                                [0m[39;49m[27m
[A
[38;5;60m#include[39;49m [38;5;89m<limits.h>[39;49m[K
[K
[38;5;129minline[39;49m [38;5;28munsigned[39;49m[K
[38;5;21mrotl[39;49m([38;5;28munsigned[39;49m [38;5;130mx[39;49m, [38;5;28mint[39;49m [38;5;130mshift[39;49m)[K
{[K
  [38;5;129mreturn[39;49m (x << shift) | (x >> ([38;5;129msizeof[39;49m(x)*CHAR_BIT - shift));[K
}[K
[K
[38;5;129minline[39;49m [38;5;28munsigned[39;49m[K
[38;5;21mrotr[39;49m([38;5;28munsigned[39;49m [38;5;130mx[39;49m, [38;5;28mint[39;49m [38;5;130mshift[39;49m)[K
{[K
  [38;5;129mreturn[39;49m (x >> shift) | (x << ([38;5;129msizeof[39;49m(x)*CHAR_BIT - shift));[K
}[K
[K
[38;5;28munsigned[39;49m[K
[38;5;21mf[39;49m([38;5;28munsigned[39;49m [38;5;130ma[39;49m, [38;5;28munsigned[39;49m [38;5;130mb[39;49m, [38;5;28munsigned[39;49m [38;5;130mn[39;49m)[K
{[K
  [38;5;129mreturn[39;49m rotl(a, n) + rotr(b, n);[K
}[K
[K
[K
[K
[K
[K
[K
[K
[K
[K
[K
[K
[K
[K
[K
[K
[K
[K
[30m[48;5;250m-UU-:----F1  [39;49m[1m[30m[48;5;250mrotate.c    [0m[39;49m[30m[48;5;250m   All L1    Git-lab8  (C/*l Abbrev) 11:46AM 0.81 ---------------------------------------------------------------------------[39;49m
[A[2d[?12l[?25h[?12;25h[38;67H[?25l[30m[48;5;250m7AM 0.65[39;49m[H
[?12l[?25h[?12;25h[39d[K[2d[39d[K[?1004l[?2004l[?1l>[?12l[?25h[?1049l[23;0;0t[39;49mepotapo1@remote05:~/i220a/submit/lab8/exercises/rotate$ make
cc -S -Wall -Og -std=c18 rotate.c
epotapo1@remote05:~/i220a/submit/lab8/exercises/rotate$ ls
Makefile  rotate.c  rotate.s
epotapo1@remote05:~/i220a/submit/lab8/exercises/rotate$ emacs rotate.s
[?1049h[22;0;0t[?12;25h[?1h=[H[2J[39d[K[?1l>[?12l[?25h[?1049l[23;0;0t[39;49m[?1049h[22;0;0t[?12;25h[?1h=[H[2J[38d[?25l[30m[47m-UUU:----F1  [39;49m[1m[30m[47m*scratch*   [0m[39;49m[30m[47m   All L1     (Fundamental) -------------------------------------------------------------------------------------------------[39;49m
[A[2d[?12l[?25h[?12;25h[39d[?25lLoading /etc/emacs/site-start.d/00debian.el (source)...done[K[H
[?12l[?25h[?12;25h[39;33H[?25l50a2ps.el (source)...[K[H
[?12l[?25h[?12;25h[39;54H[?25ldone[H
[?12l[?25h[?12;25h[39;36H[?25lsymptote.el (source)...[H
[?12l[?25h[?12;25h[39;59H[?25ldone[H
[?12l[?25h[?12;25h[39;36H[?25lutoconf.el (source)...[K[H
[?12l[?25h[?12;25h[39;58H[?25ldone[H
[?12l[?25h[?12;25h[39;35H[?25lcmake-data.el (source)...[K[H
[?12l[?25h[?12;25h[39;60H[?25ldone[H
[?12l[?25h[?12;25h[39;35H[?25ldevhelp.el (source)...[K[H
[?12l[?25h[?12;25h[39;57H[?25ldone[H
[?12l[?25h[?12;25h[39;36H[?25lictionaries-common.el (source)...[H
[?12l[?25h[?12;25h[39;9H[?25ldebian-ispell...[K[H
[?12l[?25h[?12;25h[39;9H[?25l/var/cache/dictionaries-common/emacsen-ispell-default.el (source)...[H
[?12l[?25h[?12;25h[39;77H[?25ldone[H
[?12l[?25h[?12;25h[39;9H[?25ldebian-ispell...done[K[H
[?12l[?25h[?12;25h[39;9H[?25l/var/cache/dictionaries-common/emacsen-ispell-dicts.el (source)...[H
[?12l[?25h[?12;25h[39;75H[?25ldone[H
[?12l[?25h[?12;25h[39;10H[?25letc/emacs/site-start.d/50dictionaries-common[6P[H
[?12l[?25h[?12;25h[39;35H[?25lerlang-mode.el (source)...[K[H
[?12l[?25h[?12;25h[39;61H[?25ldone[H
[?12l[?25h[?12;25h[39;35H[?25lhaskell-mode.el (source)...[K[H
[?12l[?25h[?12;25h[39;10H[?25lusr/share/emacs/site-lisp/elpa/haskel[34@l-mode-16.1/haskell-mode-autoloads[H
[?12l[?25h[?12;25h[39;96H[?25ldone[H
[?12l[?25h[?12;25h[39;10H[?25letc/emacs/site-start.d/50haskell-mode[34P[H
[?12l[?25h[?12;25h[39;35H[?25llatex-cjk-common.el (source)...[H
[?12l[?25h[?12;25h[39;10H[?25lusr/share/emacs/site-lisp/latex-cjk-commo[9@n/cjk-enc[H
[?12l[?25h[?12;25h[39;75H[?25ldone[H
[?12l[?25h[?12;25h[39;10H[?25letc/emacs/site-start.d/50latex-cjk-common[9P[H
[?12l[?25h[?12;25h[39;45H[?25lthai.el (source)...[K[H
[?12l[?25h[?12;25h[39;64H[?25ldone[H
[?12l[?25h[?12;25h[39;35H[?25lpsvn.el (source)...[K[H
[?12l[?25h[?12;25h[39;54H[?25ldone[H
[?12l[?25h[?12;25h[39;36H[?25lython-docutils.el (source)...[H
[?12l[?25h[?12;25h[39;65H[?25ldone[H
[?12l[?25h[?12;25h[39;35H[?25ltcsh.el (source)...[K[H
[?12l[?25h[?12;25h[39;54H[?25ldone[H
[?12l[?25h[?12;25h[39;36H[?25lexlive-lang-english.el (source)...[H
[?12l[?25h[?12;25h[39;70H[?25ldone[H
[?12l[?25h[?12;25h[>0c[?2004h[?1004h[39d[?25lFor information about GNU Emacs and the GNU system, type C-h C-a.[K[H
[?12l[?25h[?12;25h[39d[?25lFor information about GNU Emacs and the GNU system, type C-h C-a.[K[H[7mFile Edit Options Buffers Tools Asm Help                                                                                                              [0m[39;49m[27m
[A
        [38;5;129m.file[39;49m   [38;5;89m"rotate.c"[39;49m[K
        [38;5;129m.text[39;49m[K
        [38;5;129m.globl[39;49m  f[K
        [38;5;129m.type[39;49m   f, @function[K
[38;5;21mf[39;49m:[K
[38;5;21m.LFB2[39;49m:[K
        [38;5;129m.cfi_startproc[39;49m[K
        [38;5;129mmovl[39;49m    [38;5;130m%edx[39;49m, [38;5;130m%ecx[39;49m[K
        [38;5;129mroll[39;49m    [38;5;130m%cl[39;49m, [38;5;130m%edi[39;49m[K
        [38;5;129mrorl[39;49m    [38;5;130m%cl[39;49m, [38;5;130m%esi[39;49m[K
        [38;5;129mleal[39;49m    ([38;5;130m%rdi[39;49m,[38;5;130m%rsi[39;49m), [38;5;130m%eax[39;49m[K
        [38;5;129mret[39;49m[K
        [38;5;129m.cfi_endproc[39;49m[K
[38;5;21m.LFE2[39;49m:[K
        [38;5;129m.size[39;49m   f, .-f[K
        [38;5;129m.ident[39;49m  [38;5;89m"GCC: (Debian 8.3.0-6) 8.3.0"[39;49m[K
        [38;5;129m.section[39;49m        .note.GNU-stack,[38;5;89m""[39;49m,@progbits[K
[K
[K
[K
[K
[K
[K
[K
[K
[K
[K
[K
[K
[K
[K
[K
[K
[K
[K
[K
[30m[48;5;250m-UU-:----F1  [39;49m[1m[30m[48;5;250mrotate.s    [0m[39;49m[30m[48;5;250m   All L1     (Assembler) 11:47AM 0.46 --------------------------------------------------------------------------------------[39;49m
[A[2d[?12l[?25h[?12;25h[38;56H[?25l[30m[48;5;250m8[39;49m[H
[?12l[?25h[?12;25h[39d[K[2d[38;56H[?25l[30m[48;5;250m9AM 0.37[39;49m[H
[?12l[?25h[?12;25h[39d[K[?1004l[?2004l[?1l>[?12l[?25h[?1049l[23;0;0t[39;49mepotapo1@remote05:~/i220a/submit/lab8/exercises/rotate$ cd~[K ./[K./cpuid1/
epotapo1@remote05:~/i220a/submit/lab8/exercises/cpuid1$ ls
cpuid.s  main.c  Makefile
epotapo1@remote05:~/i220a/submit/lab8/exercises/cpuid1$ emacs cpuid.s 
[?1049h[22;0;0t[?12;25h[?1h=[H[2J[39d[K[?1l>[?12l[?25h[?1049l[23;0;0t[39;49m[?1049h[22;0;0t[?12;25h[?1h=[H[2J[38d[?25l[30m[47m-UUU:----F1  [39;49m[1m[30m[47m*scratch*   [0m[39;49m[30m[47m   All L1     (Fundamental) -------------------------------------------------------------------------------------------------[39;49m
[A[2d[?12l[?25h[?12;25h[39d[?25lLoading /etc/emacs/site-start.d/00debian.el (source)...done[K[H
[?12l[?25h[?12;25h[39;33H[?25l50a2ps.el (source)...[K[H
[?12l[?25h[?12;25h[39;54H[?25ldone[H
[?12l[?25h[?12;25h[39;36H[?25lsymptote.el (source)...[H
[?12l[?25h[?12;25h[39;59H[?25ldone[H
[?12l[?25h[?12;25h[39;36H[?25lutoconf.el (source)...[K[H
[?12l[?25h[?12;25h[39;58H[?25ldone[H
[?12l[?25h[?12;25h[39;35H[?25lcmake-data.el (source)...[K[H
[?12l[?25h[?12;25h[39;60H[?25ldone[H
[?12l[?25h[?12;25h[39;35H[?25ldevhelp.el (source)...[K[H
[?12l[?25h[?12;25h[39;57H[?25ldone[H
[?12l[?25h[?12;25h[39;36H[?25lictionaries-common.el (source)...[H
[?12l[?25h[?12;25h[39;9H[?25ldebian-ispell...[K[H
[?12l[?25h[?12;25h[39;9H[?25l/var/cache/dictionaries-common/emacsen-ispell-default.el (source)...[H
[?12l[?25h[?12;25h[39;77H[?25ldone[H
[?12l[?25h[?12;25h[39;9H[?25ldebian-ispell...done[K[H
[?12l[?25h[?12;25h[39;9H[?25l/var/cache/dictionaries-common/emacsen-ispell-dicts.el (source)...[H
[?12l[?25h[?12;25h[39;75H[?25ldone[H
[?12l[?25h[?12;25h[39;10H[?25letc/emacs/site-start.d/50dictionaries-common[6P[H
[?12l[?25h[?12;25h[39;35H[?25lerlang-mode.el (source)...[K[H
[?12l[?25h[?12;25h[39;61H[?25ldone[H
[?12l[?25h[?12;25h[39;35H[?25lhaskell-mode.el (source)...[K[H
[?12l[?25h[?12;25h[39;10H[?25lusr/share/emacs/site-lisp/elpa/haskel[34@l-mode-16.1/haskell-mode-autoloads[H
[?12l[?25h[?12;25h[39;96H[?25ldone[H
[?12l[?25h[?12;25h[39;10H[?25letc/emacs/site-start.d/50haskell-mode[34P[H
[?12l[?25h[?12;25h[39;35H[?25llatex-cjk-common.el (source)...[H
[?12l[?25h[?12;25h[39;10H[?25lusr/share/emacs/site-lisp/latex-cjk-commo[9@n/cjk-enc[H
[?12l[?25h[?12;25h[39;75H[?25ldone[H
[?12l[?25h[?12;25h[39;10H[?25letc/emacs/site-start.d/50latex-cjk-common[9P[H
[?12l[?25h[?12;25h[39;45H[?25lthai.el (source)...[K[H
[?12l[?25h[?12;25h[39;64H[?25ldone[H
[?12l[?25h[?12;25h[39;35H[?25lpsvn.el (source)...[K[H
[?12l[?25h[?12;25h[39;54H[?25ldone[H
[?12l[?25h[?12;25h[39;36H[?25lython-docutils.el (source)...[H
[?12l[?25h[?12;25h[39;65H[?25ldone[H
[?12l[?25h[?12;25h[39;35H[?25ltcsh.el (source)...[K[H
[?12l[?25h[?12;25h[39;54H[?25ldone[H
[?12l[?25h[?12;25h[39;36H[?25lexlive-lang-english.el (source)...[H
[?12l[?25h[?12;25h[39;70H[?25ldone[H
[?12l[?25h[?12;25h[>0c[?2004h[?1004h[39d[?25lFor information about GNU Emacs and the GNU system, type C-h C-a.[K[H
[?12l[?25h[?12;25h[39d[?25lFor information about GNU Emacs and the GNU system, type C-h C-a.[K[H[7mFile Edit Options Buffers Tools Asm Help                                                                                                              [0m[39;49m[27m
[A
#get_cpuid(int *eaxP, int *ebxP, int *ecxP, int *edxP).[K
#rdi = eaxP, rsi = ebxP, rdx = edxP, rcx = ecxP[K
        [38;5;129m.text[39;49m[K
        [38;5;129m.globl[39;49m get_cpuid[K
[38;5;21mget_cpuid[39;49m:[K
        [38;5;129mpushq[39;49m   [38;5;130m%rcx[39;49m[K
        [38;5;129mpushq[39;49m   [38;5;130m%rdx[39;49m[K
        [38;5;129mxorl[39;49m    [38;5;130m%eax[39;49m, [38;5;130m%eax[39;49m      #setup cpuid opcode to 0[K
        [38;5;129mcpuid[39;49m[K
        #largest param in [38;5;130m%eax[39;49m[K
        #12-char manufacturer string in ebx, edx, ecx.[K
        [38;5;129mmovl[39;49m    [38;5;130m%eax[39;49m, ([38;5;130m%rdi[39;49m)    #store eax cpuid result[K
        [38;5;129mmovl[39;49m    [38;5;130m%ebx[39;49m, ([38;5;130m%rsi[39;49m)    #store ebx cpuid result[K
        [38;5;129mpopq[39;49m    [38;5;130m%rax[39;49m            #pop address for edxP[K
        [38;5;129mmovl[39;49m    [38;5;130m%edx[39;49m, ([38;5;130m%rax[39;49m)    #store edx cpuid result[K
        [38;5;129mpopq[39;49m    [38;5;130m%rax[39;49m            #pop address for ecxP[K
        [38;5;129mmovl[39;49m    [38;5;130m%ecx[39;49m, ([38;5;130m%rax[39;49m)    #store ecx cpuid result[K
        [38;5;129mret[39;49m[K
[K
[K
[K
[K
[K
[K
[K
[K
[K
[K
[K
[K
[K
[K
[K
[K
[K
[K
[30m[48;5;250m-UU-:----F1  [39;49m[1m[30m[48;5;250mcpuid.s     [0m[39;49m[30m[48;5;250m   All L1    Git-lab8  (Assembler) 11:51AM 0.53 -----------------------------------------------------------------------------[39;49m
[A[2d[?12l[?25h[?12;25h[38;65H[?25l[30m[48;5;250m2AM 0.56[39;49m[H
[?12l[?25h[?12;25h[38;65H[?25l[30m[48;5;250m3AM 0.40[39;49m[H
[?12l[?25h[?12;25h[39d[K[2d[39d[K[?1004l[?2004l[?1l>[?12l[?25h[?1049l[23;0;0t[39;49mepotapo1@remote05:~/i220a/submit/lab8/exercises/cpuid1$ make
cc -g -Wall -std=c18 -Og   -c -o main.o main.c
cc -c -g -Wall -std=c18 -Og cpuid.s -o cpuid.o
cc main.o cpuid.o -o cpuid
epotapo1@remote05:~/i220a/submit/lab8/exercises/cpuid1$ ./cpuid 
cpuid: eax = 0x14; ebx = 0x756e6547; edx = 0x49656e69; ecx = 0x6c65746e
vendor: GenuineIntel
epotapo1@remote05:~/i220a/submit/lab8/exercises/cpuid1$ cd ../cpuid1/[K[K2/
epotapo1@remote05:~/i220a/submit/lab8/exercises/cpuid2$ ls
cpuid.s  main.c  Makefile
epotapo1@remote05:~/i220a/submit/lab8/exercises/cpuid2$ emacs main.c 
[?1049h[22;0;0t[?12;25h[?1h=[H[2J[39d[K[?1l>[?12l[?25h[?1049l[23;0;0t[39;49m[?1049h[22;0;0t[?12;25h[?1h=[H[2J[38d[?25l[30m[47m-UUU:----F1  [39;49m[1m[30m[47m*scratch*   [0m[39;49m[30m[47m   All L1     (Fundamental) -------------------------------------------------------------------------------------------------[39;49m
[A[2d[?12l[?25h[?12;25h[39d[?25lLoading /etc/emacs/site-start.d/00debian.el (source)...done[K[H
[?12l[?25h[?12;25h[39;33H[?25l50a2ps.el (source)...[K[H
[?12l[?25h[?12;25h[39;54H[?25ldone[H
[?12l[?25h[?12;25h[39;36H[?25lsymptote.el (source)...[H
[?12l[?25h[?12;25h[39;59H[?25ldone[H
[?12l[?25h[?12;25h[39;36H[?25lutoconf.el (source)...[K[H
[?12l[?25h[?12;25h[39;58H[?25ldone[H
[?12l[?25h[?12;25h[39;35H[?25lcmake-data.el (source)...[K[H
[?12l[?25h[?12;25h[39;60H[?25ldone[H
[?12l[?25h[?12;25h[39;35H[?25ldevhelp.el (source)...[K[H
[?12l[?25h[?12;25h[39;57H[?25ldone[H
[?12l[?25h[?12;25h[39;36H[?25lictionaries-common.el (source)...[H
[?12l[?25h[?12;25h[39;9H[?25ldebian-ispell...[K[H
[?12l[?25h[?12;25h[39;9H[?25l/var/cache/dictionaries-common/emacsen-ispell-default.el (source)...[H
[?12l[?25h[?12;25h[39;77H[?25ldone[H
[?12l[?25h[?12;25h[39;9H[?25ldebian-ispell...done[K[H
[?12l[?25h[?12;25h[39;9H[?25l/var/cache/dictionaries-common/emacsen-ispell-dicts.el (source)...[H
[?12l[?25h[?12;25h[39;75H[?25ldone[H
[?12l[?25h[?12;25h[39;10H[?25letc/emacs/site-start.d/50dictionaries-common[6P[H
[?12l[?25h[?12;25h[39;35H[?25lerlang-mode.el (source)...[K[H
[?12l[?25h[?12;25h[39;61H[?25ldone[H
[?12l[?25h[?12;25h[39;35H[?25lhaskell-mode.el (source)...[K[H
[?12l[?25h[?12;25h[39;10H[?25lusr/share/emacs/site-lisp/elpa/haskel[34@l-mode-16.1/haskell-mode-autoloads[H
[?12l[?25h[?12;25h[39;96H[?25ldone[H
[?12l[?25h[?12;25h[39;10H[?25letc/emacs/site-start.d/50haskell-mode[34P[H
[?12l[?25h[?12;25h[39;35H[?25llatex-cjk-common.el (source)...[H
[?12l[?25h[?12;25h[39;10H[?25lusr/share/emacs/site-lisp/latex-cjk-commo[9@n/cjk-enc[H
[?12l[?25h[?12;25h[39;75H[?25ldone[H
[?12l[?25h[?12;25h[39;10H[?25letc/emacs/site-start.d/50latex-cjk-common[9P[H
[?12l[?25h[?12;25h[39;45H[?25lthai.el (source)...[K[H
[?12l[?25h[?12;25h[39;64H[?25ldone[H
[?12l[?25h[?12;25h[39;35H[?25lpsvn.el (source)...[K[H
[?12l[?25h[?12;25h[39;54H[?25ldone[H
[?12l[?25h[?12;25h[39;36H[?25lython-docutils.el (source)...[H
[?12l[?25h[?12;25h[39;65H[?25ldone[H
[?12l[?25h[?12;25h[39;35H[?25ltcsh.el (source)...[K[H
[?12l[?25h[?12;25h[39;54H[?25ldone[H
[?12l[?25h[?12;25h[39;36H[?25lexlive-lang-english.el (source)...[H
[?12l[?25h[?12;25h[39;70H[?25ldone[H
[?12l[?25h[?12;25h[>0c[?2004h[?1004h[39d[?25lFor information about GNU Emacs and the GNU system, type C-h C-a.[K[H
[?12l[?25h[?12;25h[39d[?25lFor information about GNU Emacs and the GNU system, type C-h C-a.[K[H[7mFile Edit Options Buffers Tools C Help                                                                                                                [0m[39;49m[27m
[A
[38;5;60m#include[39;49m [38;5;89m<stdio.h>[39;49m[K
[38;5;60m#include[39;49m [38;5;89m<stdlib.h>[39;49m[K
[K
[38;5;89m/** External routine which returns cpuid info for op in *eax, *ebx, [39;49m                                                                                  
[A
[38;5;89m *  *ecx, *edx (corresponding to values returned in like-named [39;49m                                                                                       
[A
[38;5;89m *  registers by x86 cpuid instruction). [39;49m                                                                                                             
[A
[38;5;89m */[39;49m[K
[38;5;28mvoid[39;49m [38;5;21mget_cpuid[39;49m([38;5;28mint[39;49m [38;5;130mop[39;49m, [38;5;28mint[39;49m *[38;5;130meax[39;49m, [38;5;28mint[39;49m *[38;5;130mebx[39;49m, [38;5;28mint[39;49m *[38;5;130mecx[39;49m, [38;5;28mint[39;49m *[38;5;130medx[39;49m);[K
[K
[38;5;89m/** Decode vendor string in ebx:edx:ecx into vendor_string (which [39;49m                                                                                    
[A
[38;5;89m *  is assumed to be large enough. [39;49m                                                                                                                   
[A
[38;5;89m */[39;49m[K
[38;5;129mstatic[39;49m [38;5;28mvoid[39;49m[K
[38;5;21mdecode_vendor_string[39;49m([38;5;28mint[39;49m [38;5;130mebx[39;49m, [38;5;28mint[39;49m [38;5;130mecx[39;49m, [38;5;28mint[39;49m [38;5;130medx[39;49m, [38;5;28mchar[39;49m *[38;5;130mvendor_string[39;49m)[K
{[K
  *( (([38;5;28mint[39;49m *)vendor_string) + 0 ) = ebx;[K
  *( (([38;5;28mint[39;49m *)vendor_string) + 1 ) = edx;[K
  *( (([38;5;28mint[39;49m *)vendor_string) + 2 ) = ecx;[K
  *([38;5;28mchar[39;49m *)((([38;5;28mint[39;49m *)vendor_string + 3)) = [38;5;89m'\0'[39;49m;[K
}[K
[K
[38;5;89m/** Output cpuid for op specified by first command-line argument on [39;49m                                                                                  
[A
[38;5;89m *  stdout. If op is 0, decode and output vendor info too. [39;49m                                                                                           
[A
[38;5;89m */[39;49m[K
[38;5;28mint[39;49m[K
[38;5;21mmain[39;49m([38;5;28mint[39;49m [38;5;130margc[39;49m, [38;5;129mconst[39;49m [38;5;28mchar[39;49m *[38;5;130margv[39;49m[])[K
{[K
  [38;5;129mif[39;49m (argc != 2) {[K
    fprintf(stderr, [38;5;89m"usage: %s CPUID_OP\n"[39;49m, argv[0]);[K
    exit(1);[K
  }[K
  [38;5;28mint[39;49m [38;5;130mop[39;49m = atoi(argv[1]);[K
  [38;5;28mint[39;49m [38;5;130meax[39;49m, [38;5;130mebx[39;49m, [38;5;130mecx[39;49m, [38;5;130medx[39;49m;[K
  get_cpuid(op, &eax, &ebx, &ecx, &edx);[K
  printf([38;5;89m"cpuid(%d): eax = 0x%x; ebx = 0x%x; edx = 0x%x; ecx = 0x%x\n"[39;49m,[K
         op, eax, ebx, edx, ecx);[K
[30m[48;5;250m-UU-:----F1  [39;49m[1m[30m[48;5;250mmain.c      [0m[39;49m[30m[48;5;250m   Top L1    Git-lab8  (C/*l Abbrev) 11:55AM 0.44 ---------------------------------------------------------------------------[39;49m
[A[2d[?12l[?25h[?12;25h[39d[K[2d[39d[K[?1004l[?2004l[?1l>[?12l[?25h[?1049l[23;0;0t[39;49mepotapo1@remote05:~/i220a/submit/lab8/exercises/cpuid2$ cd ../cpuid1/
epotapo1@remote05:~/i220a/submit/lab8/exercises/cpuid1$ ls
cpuid  cpuid.o	cpuid.s  main.c  main.o  Makefile
epotapo1@remote05:~/i220a/submit/lab8/exercises/cpuid1$ emacs cpuid.s 
[?1049h[22;0;0t[?12;25h[?1h=[H[2J[39d[K[?1l>[?12l[?25h[?1049l[23;0;0t[39;49m[?1049h[22;0;0t[?12;25h[?1h=[H[2J[38d[?25l[30m[47m-UUU:----F1  [39;49m[1m[30m[47m*scratch*   [0m[39;49m[30m[47m   All L1     (Fundamental) -------------------------------------------------------------------------------------------------[39;49m
[A[2d[?12l[?25h[?12;25h[39d[?25lLoading /etc/emacs/site-start.d/00debian.el (source)...done[K[H
[?12l[?25h[?12;25h[39;33H[?25l50a2ps.el (source)...[K[H
[?12l[?25h[?12;25h[39;54H[?25ldone[H
[?12l[?25h[?12;25h[39;36H[?25lsymptote.el (source)...[H
[?12l[?25h[?12;25h[39;59H[?25ldone[H
[?12l[?25h[?12;25h[39;36H[?25lutoconf.el (source)...[K[H
[?12l[?25h[?12;25h[39;58H[?25ldone[H
[?12l[?25h[?12;25h[39;35H[?25lcmake-data.el (source)...[K[H
[?12l[?25h[?12;25h[39;60H[?25ldone[H
[?12l[?25h[?12;25h[39;35H[?25ldevhelp.el (source)...[K[H
[?12l[?25h[?12;25h[39;57H[?25ldone[H
[?12l[?25h[?12;25h[39;36H[?25lictionaries-common.el (source)...[H
[?12l[?25h[?12;25h[39;9H[?25ldebian-ispell...[K[H
[?12l[?25h[?12;25h[39;9H[?25l/var/cache/dictionaries-common/emacsen-ispell-default.el (source)...[H
[?12l[?25h[?12;25h[39;77H[?25ldone[H
[?12l[?25h[?12;25h[39;9H[?25ldebian-ispell...done[K[H
[?12l[?25h[?12;25h[39;9H[?25l/var/cache/dictionaries-common/emacsen-ispell-dicts.el (source)...[H
[?12l[?25h[?12;25h[39;75H[?25ldone[H
[?12l[?25h[?12;25h[39;10H[?25letc/emacs/site-start.d/50dictionaries-common[6P[H
[?12l[?25h[?12;25h[39;35H[?25lerlang-mode.el (source)...[K[H
[?12l[?25h[?12;25h[39;61H[?25ldone[H
[?12l[?25h[?12;25h[39;35H[?25lhaskell-mode.el (source)...[K[H
[?12l[?25h[?12;25h[39;10H[?25lusr/share/emacs/site-lisp/elpa/haskel[34@l-mode-16.1/haskell-mode-autoloads[H
[?12l[?25h[?12;25h[39;96H[?25ldone[H
[?12l[?25h[?12;25h[39;10H[?25letc/emacs/site-start.d/50haskell-mode[34P[H
[?12l[?25h[?12;25h[39;35H[?25llatex-cjk-common.el (source)...[H
[?12l[?25h[?12;25h[39;10H[?25lusr/share/emacs/site-lisp/latex-cjk-commo[9@n/cjk-enc[H
[?12l[?25h[?12;25h[39;75H[?25ldone[H
[?12l[?25h[?12;25h[39;10H[?25letc/emacs/site-start.d/50latex-cjk-common[9P[H
[?12l[?25h[?12;25h[39;45H[?25lthai.el (source)...[K[H
[?12l[?25h[?12;25h[39;64H[?25ldone[H
[?12l[?25h[?12;25h[39;35H[?25lpsvn.el (source)...[K[H
[?12l[?25h[?12;25h[39;54H[?25ldone[H
[?12l[?25h[?12;25h[39;36H[?25lython-docutils.el (source)...[H
[?12l[?25h[?12;25h[39;65H[?25ldone[H
[?12l[?25h[?12;25h[39;35H[?25ltcsh.el (source)...[K[H
[?12l[?25h[?12;25h[39;54H[?25ldone[H
[?12l[?25h[?12;25h[39;36H[?25lexlive-lang-english.el (source)...[H
[?12l[?25h[?12;25h[39;70H[?25ldone[H
[?12l[?25h[?12;25h[>0c[?2004h[?1004h[39d[?25lFor information about GNU Emacs and the GNU system, type C-h C-a.[K[H
[?12l[?25h[?12;25h[39d[?25lFor information about GNU Emacs and the GNU system, type C-h C-a.[K[H[7mFile Edit Options Buffers Tools Asm Help                                                                                                              [0m[39;49m[27m
[A
#get_cpuid(int *eaxP, int *ebxP, int *ecxP, int *edxP).[K
#rdi = eaxP, rsi = ebxP, rdx = edxP, rcx = ecxP[K
        [38;5;129m.text[39;49m[K
        [38;5;129m.globl[39;49m get_cpuid[K
[38;5;21mget_cpuid[39;49m:[K
        [38;5;129mpushq[39;49m   [38;5;130m%rcx[39;49m[K
        [38;5;129mpushq[39;49m   [38;5;130m%rdx[39;49m[K
        [38;5;129mxorl[39;49m    [38;5;130m%eax[39;49m, [38;5;130m%eax[39;49m      #setup cpuid opcode to 0[K
        [38;5;129mcpuid[39;49m[K
        #largest param in [38;5;130m%eax[39;49m[K
        #12-char manufacturer string in ebx, edx, ecx.[K
        [38;5;129mmovl[39;49m    [38;5;130m%eax[39;49m, ([38;5;130m%rdi[39;49m)    #store eax cpuid result[K
        [38;5;129mmovl[39;49m    [38;5;130m%ebx[39;49m, ([38;5;130m%rsi[39;49m)    #store ebx cpuid result[K
        [38;5;129mpopq[39;49m    [38;5;130m%rax[39;49m            #pop address for edxP[K
        [38;5;129mmovl[39;49m    [38;5;130m%edx[39;49m, ([38;5;130m%rax[39;49m)    #store edx cpuid result[K
        [38;5;129mpopq[39;49m    [38;5;130m%rax[39;49m            #pop address for ecxP[K
        [38;5;129mmovl[39;49m    [38;5;130m%ecx[39;49m, ([38;5;130m%rax[39;49m)    #store ecx cpuid result[K
        [38;5;129mret[39;49m[K
[K
[K
[K
[K
[K
[K
[K
[K
[K
[K
[K
[K
[K
[K
[K
[K
[K
[K
[30m[48;5;250m-UU-:----F1  [39;49m[1m[30m[48;5;250mcpuid.s     [0m[39;49m[30m[48;5;250m   All L1    Git-lab8  (Assembler) 11:56AM 0.45 -----------------------------------------------------------------------------[39;49m
[A[2d[?12l[?25h[?12;25h[38;65H[?25l[30m[48;5;250m7AM 0.53[39;49m[H
[?12l[?25h[?12;25h[39d[K[2d[39d[K[?1004l[?2004l[?1l>[?12l[?25h[?1049l[23;0;0t[39;49mepotapo1@remote05:~/i220a/submit/lab8/exercises/cpuid1$ emacs cpuid.s ls[Kcd ../cpuid1/emacs main.c ls[Kcd ../cpuid2/
epotapo1@remote05:~/i220a/submit/lab8/exercises/cpuid2$ emacs cpuid.s 
[?1049h[22;0;0t[?12;25h[?1h=[H[2J[39d[K[?1l>[?12l[?25h[?1049l[23;0;0t[39;49m[?1049h[22;0;0t[?12;25h[?1h=[H[2J[38d[?25l[30m[47m-UUU:----F1  [39;49m[1m[30m[47m*scratch*   [0m[39;49m[30m[47m   All L1     (Fundamental) -------------------------------------------------------------------------------------------------[39;49m
[A[2d[?12l[?25h[?12;25h[39d[?25lLoading /etc/emacs/site-start.d/00debian.el (source)...done[K[H
[?12l[?25h[?12;25h[39;33H[?25l50a2ps.el (source)...[K[H
[?12l[?25h[?12;25h[39;54H[?25ldone[H
[?12l[?25h[?12;25h[39;36H[?25lsymptote.el (source)...[H
[?12l[?25h[?12;25h[39;59H[?25ldone[H
[?12l[?25h[?12;25h[39;36H[?25lutoconf.el (source)...[K[H
[?12l[?25h[?12;25h[39;58H[?25ldone[H
[?12l[?25h[?12;25h[39;35H[?25lcmake-data.el (source)...[K[H
[?12l[?25h[?12;25h[39;60H[?25ldone[H
[?12l[?25h[?12;25h[39;35H[?25ldevhelp.el (source)...[K[H
[?12l[?25h[?12;25h[39;57H[?25ldone[H
[?12l[?25h[?12;25h[39;36H[?25lictionaries-common.el (source)...[H
[?12l[?25h[?12;25h[39;9H[?25ldebian-ispell...[K[H
[?12l[?25h[?12;25h[39;9H[?25l/var/cache/dictionaries-common/emacsen-ispell-default.el (source)...[H
[?12l[?25h[?12;25h[39;77H[?25ldone[H
[?12l[?25h[?12;25h[39;9H[?25ldebian-ispell...done[K[H
[?12l[?25h[?12;25h[39;9H[?25l/var/cache/dictionaries-common/emacsen-ispell-dicts.el (source)...[H
[?12l[?25h[?12;25h[39;75H[?25ldone[H
[?12l[?25h[?12;25h[39;10H[?25letc/emacs/site-start.d/50dictionaries-common[6P[H
[?12l[?25h[?12;25h[39;35H[?25lerlang-mode.el (source)...[K[H
[?12l[?25h[?12;25h[39;61H[?25ldone[H
[?12l[?25h[?12;25h[39;35H[?25lhaskell-mode.el (source)...[K[H
[?12l[?25h[?12;25h[39;10H[?25lusr/share/emacs/site-lisp/elpa/haskel[34@l-mode-16.1/haskell-mode-autoloads[H
[?12l[?25h[?12;25h[39;96H[?25ldone[H
[?12l[?25h[?12;25h[39;10H[?25letc/emacs/site-start.d/50haskell-mode[34P[H
[?12l[?25h[?12;25h[39;35H[?25llatex-cjk-common.el (source)...[H
[?12l[?25h[?12;25h[39;10H[?25lusr/share/emacs/site-lisp/latex-cjk-commo[9@n/cjk-enc[H
[?12l[?25h[?12;25h[39;75H[?25ldone[H
[?12l[?25h[?12;25h[39;10H[?25letc/emacs/site-start.d/50latex-cjk-common[9P[H
[?12l[?25h[?12;25h[39;45H[?25lthai.el (source)...[K[H
[?12l[?25h[?12;25h[39;64H[?25ldone[H
[?12l[?25h[?12;25h[39;35H[?25lpsvn.el (source)...[K[H
[?12l[?25h[?12;25h[39;54H[?25ldone[H
[?12l[?25h[?12;25h[39;36H[?25lython-docutils.el (source)...[H
[?12l[?25h[?12;25h[39;65H[?25ldone[H
[?12l[?25h[?12;25h[39;35H[?25ltcsh.el (source)...[K[H
[?12l[?25h[?12;25h[39;54H[?25ldone[H
[?12l[?25h[?12;25h[39;36H[?25lexlive-lang-english.el (source)...[H
[?12l[?25h[?12;25h[39;70H[?25ldone[H
[?12l[?25h[?12;25h[>0c[?2004h[?1004h[39d[?25lFor information about GNU Emacs and the GNU system, type C-h C-a.[K[H
[?12l[?25h[?12;25h[39d[?25lFor information about GNU Emacs and the GNU system, type C-h C-a.[K[H[7mFile Edit Options Buffers Tools Asm Help                                                                                                              [0m[39;49m[27m
[A
#Currently get_cpuid(int *eax, int *ebx, int *ecx, int *edx).[K
#Modify to get_cpuid(int cpuid_op, int *eax, int *ebx, int *ecx, int *edx).[K
        [38;5;129m.text[39;49m[K
        [38;5;129m.globl[39;49m get_cpuid[K
[38;5;21mget_cpuid[39;49m:[K
        [38;5;129mpushq[39;49m   [38;5;130m%rcx[39;49m[K
        [38;5;129mpushq[39;49m   [38;5;130m%rdx[39;49m[K
        [38;5;129mxorl[39;49m    [38;5;130m%eax[39;49m, [38;5;130m%eax[39;49m      #setup cpuid opcode to 0[K
        [38;5;129mcpuid[39;49m[K
        #largest param in [38;5;130m%eax[39;49m[K
        #12-char manufacturer string in ebx, edx, ecx.[K
        [38;5;129mmovl[39;49m    [38;5;130m%eax[39;49m, ([38;5;130m%rdi[39;49m)    #store eax cpuid result[K
        [38;5;129mmovl[39;49m    [38;5;130m%ebx[39;49m, ([38;5;130m%rsi[39;49m)    #store ebx cpuid result[K
        [38;5;129mpopq[39;49m    [38;5;130m%rax[39;49m            #pop address for edxP[K
        [38;5;129mmovl[39;49m    [38;5;130m%edx[39;49m, ([38;5;130m%rax[39;49m)    #store edx cpuid result[K
        [38;5;129mpopq[39;49m    [38;5;130m%rax[39;49m            #pop address for ecxP[K
        [38;5;129mmovl[39;49m    [38;5;130m%ecx[39;49m, ([38;5;130m%rax[39;49m)    #store ecx cpuid result[K
        [38;5;129mret[39;49m[K
[K
[K
[K
[K
[K
[K
[K
[K
[K
[K
[K
[K
[K
[K
[K
[K
[K
[K
[30m[48;5;250m-UU-:----F1  [39;49m[1m[30m[48;5;250mcpuid.s     [0m[39;49m[30m[48;5;250m   All L1    Git-lab8  (Assembler) 11:58AM 0.52 -----------------------------------------------------------------------------[39;49m
[A[2d[?12l[?25h[?12;25h[39d[K[2d[38;65H[?25l[30m[48;5;250m9AM 0.30[39;49m[H
[?12l[?25h[?12;25h[38;62H[?25l[30m[48;5;250m2:00PM 0.22[39;49m[H
[?12l[?25h[?12;25h[38;65H[?25l[30m[48;5;250m1PM 0.66[39;49m[H
[?12l[?25h[?12;25h[38;65H[?25l[30m[48;5;250m2PM 1.5[39;49m[H
[?12l[?25h[?12;25h[38;34H[?25l[30m[48;5;250m2[39;49m[H

[?12l[?25h[?12;25h[38;34H[?25l[30m[48;5;250m4[39;49m[5;1H[?12l[?25h[?12;25h[38;34H[?25l[30m[48;5;250m5[39;49m[6;1H[?12l[?25h[?12;25h[38;34H[?25l[30m[48;5;250m6[39;49m[7;1H[?12l[?25h[?12;25h[38;34H[?25l[30m[48;5;250m7[39;49m[8;1H[?12l[?25h[?12;25h[38;34H[?25l[30m[48;5;250m8[39;49m[9;1H[?12l[?25h[?12;25h	[C[C[C[C[?25l [38;6H[30m[48;5;250m**[39;49m[9;12H[?12l[?25h[?12;25h[?25l [?12l[?25h[?12;25h[?25l [?12l[?25h[?12;25h[?25l        [38;5;129m%eax[39;49m	[?12l[?25h[?12;25h[?25l[38;5;129mm[39;49m       [38;5;130m%eax[39;49m[9;10H[?12l[?25h[?12;25h[?25l[38;5;129mo[39;49m[?12l[?25h[?12;25h[?25l[38;5;129mv[39;49m[?12l[?25h[?12;25h[?25l[38;5;129ml[39;49m[?12l[?25h[?12;25h[C	[C[C[C[C[38;34H[?25l[30m[48;5;250m7[39;49m[8;21H[?12l[?25h[?12;25h[38;34H[?25l[30m[48;5;250m6[39;49m[7;21H[?12l[?25h[?12;25h[38;34H[?25l[30m[48;5;250m5[39;49m[6;11H[?12l[?25h[?12;25h[38;34H[?25l[30m[48;5;250m4[39;49m[5;21H[?12l[?25h[?12;25h[38;34H[?25l[30m[48;5;250m3[39;49m[4;14H[?12l[?25h[?12;25h[38;34H[?25l[30m[48;5;250m2[39;49m[3;21H[?12l[?25h[?12;25h[38;34H[?25l[30m[48;5;250m1[39;49m[2;21H[?12l[?25h[?12;25h[38;34H[?25l[30m[48;5;250m2[39;49m[3;21H[?12l[?25h[?12;25h[C[C		[C[C[C[C[C[C		[C[C[C[C[C[C		[C[C[C[C[C[C		[C[C[C[C[C[C		[C[C[C[C[C[C		[C[C[C[C[C[C		[C[C[C[1;37r[10;1H[1L[1;39r[3;1H[8@
[K[5;10H[?25l[38;5;129mtext[39;49m[K
        [38;5;129m.globl[39;49m get_cpuid
[38;5;21mget_cpuid[39;49m:[K[8;19H[38;5;130mc[39;49m
	[38;5;129mpushq[39;49m   [38;5;130m%rdx[39;49m[K
        [38;5;129mmovl[39;49m    [38;5;130m%eax[39;49m, [38;5;130m%eax[39;49m      #setup cpuid opcode to 0[K[38;34H[30m[48;5;250m3[39;49m[4;9H[?12l[?25h[?12;25h[38;65H[?25l[30m[48;5;250m3PM 1.68[39;49m[4;9H[?12l[?25h[?12;25h[?25l#[?12l[?25h[?12;25h[38;34H[?25l[30m[48;5;250m2[39;49m[3;10H[?12l[?25h[?12;25h[8P[38;34H[?25l[30m[48;5;250m1[39;49m[H
[?12l[?25h[?12;25h[38;34H[?25l[30m[48;5;250m2[39;49m[H

[?12l[?25h[?12;25h[38;34H[?25l[30m[48;5;250m3[39;49m[4;1H[?12l[?25h[?12;25h	[8P[C					[C[C[C[C[C[?25l%[?12l[?25h[?12;25h	[?25l[38;5;130m%r[39;49m[?12l[?25h[?12;25h[?25l[38;5;130md[39;49m[?12l[?25h[?12;25h[?25l[38;5;130mi[39;49m[?12l[?25h[?12;25h[K[K[?25l%[K[?12l[?25h[?12;25h[C[K[4;22H[?25lr[?12l[?25h[?12;25h[C[K[4;22H[?25lo[?12l[?25h[?12;25h[?25lp[?12l[?25h[?12;25h[K[C[K[4;22H[39;1H[?25lAuto-saving...[4;22H[?12l[?25h[?12;25h[39;15H[?25ldone[4;22H[?12l[?25h[?12;25h[39;1H[K[4;22H[?25lo[?12l[?25h[?12;25h[?25lp[?12l[?25h[?12;25h	[?25l=[?12l[?25h[?12;25h[C[?25lr[?12l[?25h[?12;25h[?25ld[?12l[?25h[?12;25h[?25li[?12l[?25h[?12;25h[?25l,[?12l[?25h[?12;25h		[C[C[C[?25le[?12l[?25h[?12;25h[?25la[?12l[?25h[?12;25h[?25lx[?12l[?25h[?12;25h	[?25l=[?12l[?25h[?12;25h[C[?25lr[?12l[?25h[?12;25h[?25li[?12l[?25h[?12;25h[K[?25ls[?12l[?25h[?12;25h[?25li[?12l[?25h[?12;25h[?25l,[?12l[?25h[?12;25h[C	[?25le[?12l[?25h[?12;25h[?25lb[?12l[?25h[?12;25h[?25lx[?12l[?25h[?12;25h[C[?25l=[?12l[?25h[?12;25h[C[?25lr[?12l[?25h[?12;25h[?25ld[?12l[?25h[?12;25h[?25lx[?12l[?25h[?12;25h[?25l,[?12l[?25h[?12;25h[C[?25le[?12l[?25h[?12;25h[?25lc[?12l[?25h[?12;25h[?25lx[?12l[?25h[?12;25h[C[?25l=[?12l[?25h[?12;25h	[?25lr[?12l[?25h[?12;25h[?25lc[?12l[?25h[?12;25h[?25lx[?12l[?25h[?12;25h[?25l,[?12l[?25h[?12;25h[C[C[?25le[?12l[?25h[?12;25h[?25ld[?12l[?25h[?12;25h[?25lx[?12l[?25h[?12;25h[C[?25l=[?12l[?25h[?12;25h[C[?25lr[?12l[?25h[?12;25h[?25l8[?12l[?25h[?12;25h[?25ledx = r8[K[4;69H[?12l[?25h[?12;25h[?25l[1P[?12l[?25h[?12;25h[?25l[1P[?12l[?25h[?12;25h[C[?25l[1@ [?12l[?25h[?12;25h	[38;65H[?25l[30m[48;5;250m4PM 1.63[39;49m[4;33H[?12l[?25h[?12;25h[C[?25l[1P[?12l[?25h[?12;25h[C[?25l[1@ [?12l[?25h[?12;25h[38;34H[?25l[30m[48;5;250m4[39;49m[5;14H[?12l[?25h[?12;25h[38;34H[?25l[30m[48;5;250m5[39;49m[6;22H[?12l[?25h[?12;25h[38;34H[?25l[30m[48;5;250m6[39;49m[7;11H[?12l[?25h[?12;25h[38;34H[?25l[30m[48;5;250m7[39;49m[8;21H[?12l[?25h[?12;25h[38;34H[?25l[30m[48;5;250m8[39;49m[9;21H[?12l[?25h[?12;25h[38;34H[?25l[30m[48;5;250m9[39;49m[10;22H[?12l[?25h[?12;25h[38;34H[?25l[30m[48;5;250m10[39;49m[11;14H[?12l[?25h[?12;25h[38;34H[?25l[30m[48;5;250m9 [39;49m[10;22H[?12l[?25h[?12;25h[?25l, [38;5;130m%eax[39;49m [?12l[?25h[?12;25h[?25l, [38;5;130m%eax[39;49m [?12l[?25h[?12;25h[?25l%, [38;5;130m%eax[39;49m[8P[?12l[?25h[?12;25h[?25l[38;5;130m%r[39;49m, [38;5;130m%ea[39;49m[8@[38;5;130mx[39;49m       [10;19H[?12l[?25h[?12;25h[?25l[38;5;130md[39;49m, [38;5;130m%eax[39;49m[?12l[?25h[?12;25h[?25l[38;5;130mi[39;49m, [38;5;130m%eax[39;49m[?12l[?25h[?12;25h[C[C[?25l([38;5;130m%eax[39;49m[?12l[?25h[?12;25h	[C[C[C[?25l[48;5;80m([39;49m[38;5;130m%eax[39;49m)[?12l[?25h[?12;25h[?25l(		[?12l[?25h[?12;25h[C[C[C[C[39;1H[?25lAuto-saving...[10;37H[?12l[?25h[?12;25h[39;15H[?25ldone[10;37H[?12l[?25h[?12;25h[39;1H[K[10;38H[C		[C[C[C[C[C[C		[C[C[C[C[C[C		[K	[?25li[?12l[?25h[?12;25h[?25ln[?12l[?25h[?12;25h[?25lc[?12l[?25h[?12;25h[?25lo[?12l[?25h[?12;25h[?25lm[?12l[?25h[?12;25h[?25li[?12l[?25h[?12;25h[?25ln[?12l[?25h[?12;25h[?25lg[?12l[?25h[?12;25h	[?25lc[?12l[?25h[?12;25h[?25lp[?12l[?25h[?12;25h[?25lu[?12l[?25h[?12;25h[?25li[?12l[?25h[?12;25h[?25ld[?12l[?25h[?12;25h[?25l_[?12l[?25h[?12;25h[?25lo[?12l[?25h[?12;25h[?25lp[?12l[?25h[?12;25h[38;34H[?25l[30m[48;5;250m10[39;49m[11;14H[?12l[?25h[?12;25h[38;35H[?25l[30m[48;5;250m1[39;49m[12;31H[?12l[?25h[?12;25h[38;35H[?25l[30m[48;5;250m2[39;49m[13;55H[?12l[?25h[?12;25h[38;35H[?25l[30m[48;5;250m3[39;49m[14;56H[?12l[?25h[?12;25h[38;65H[?25l[30m[48;5;250m5PM 1.68[39;49m[14;54H[?12l[?25h[?12;25h[C[?25l[38;5;130mi[39;49m) [?12l[?25h[?12;25h[?25l[38;5;130mdi[39;49m)[?12l[?25h[?12;25h[38;35H[?25l[30m[48;5;250m4[39;49m[15;27H[?12l[?25h[?12;25h[C[?25l) [?12l[?25h[?12;25h[?25l) [?12l[?25h[?12;25h[?25l[38;5;130md[39;49m)[?12l[?25h[?12;25h[?25l[38;5;130mx[39;49m)[?12l[?25h[?12;25h[38;35H[?25l[30m[48;5;250m3[39;49m[14;28H[?12l[?25h[?12;25h[?25l[38;5;130mi[39;49m) [?12l[?25h[?12;25h[?25l[38;5;130msi[39;49m)[?12l[?25h[?12;25h[38;35H[?25l[30m[48;5;250m4[39;49m[15;27H[?12l[?25h[?12;25h[39;1H[?25lSaving file /home/epotapo1/i220a/submit/lab8/exercises/cpuid2/cpuid.s...[15;27H[?12l[?25h[?12;25h[39;1H[?25lWrote /home/epotapo1/i220a/submit/lab8/exercises/cpuid2/cpuid.s[K[15;27H[?12l[?25h[?12;25h[38;6H[?25l[30m[48;5;250m----F1  [39;49m[1m[30m[48;5;250mcpuid.s     [0m[39;49m[30m[48;5;250m   All L14   Git:[39;49m[15;27H[?12l[?25h[?12;25h[39;1H[K[15;27H[39;1H[K[?1004l[?2004l[?1l>[?12l[?25h[?1049l[23;0;0t[39;49mepotapo1@remote05:~/i220a/submit/lab8/exercises/cpuid2$ make
cc -g -Wall -std=c18   -c -o main.o main.c
cc -c -g -Wall -std=c18 cpuid.s -o cpuid.o
cpuid.s: Assembler messages:
cpuid.s:9: Error: incorrect register `%rdi' used with `l' suffix
make: *** [Makefile:11: cpuid.o] Error 1
epotapo1@remote05:~/i220a/submit/lab8/exercises/cpuid2$ makeemacs cpuid.s 
[?1049h[22;0;0t[?12;25h[?1h=[H[2J[39d[K[?1l>[?12l[?25h[?1049l[23;0;0t[39;49m[?1049h[22;0;0t[?12;25h[?1h=[H[2J[38d[?25l[30m[47m-UUU:----F1  [39;49m[1m[30m[47m*scratch*   [0m[39;49m[30m[47m   All L1     (Fundamental) -------------------------------------------------------------------------------------------------[39;49m
[A[2d[?12l[?25h[?12;25h[39d[?25lLoading /etc/emacs/site-start.d/00debian.el (source)...done[K[H
[?12l[?25h[?12;25h[39;33H[?25l50a2ps.el (source)...[K[H
[?12l[?25h[?12;25h[39;54H[?25ldone[H
[?12l[?25h[?12;25h[39;36H[?25lsymptote.el (source)...[H
[?12l[?25h[?12;25h[39;59H[?25ldone[H
[?12l[?25h[?12;25h[39;36H[?25lutoconf.el (source)...[K[H
[?12l[?25h[?12;25h[39;58H[?25ldone[H
[?12l[?25h[?12;25h[39;35H[?25lcmake-data.el (source)...[K[H
[?12l[?25h[?12;25h[39;60H[?25ldone[H
[?12l[?25h[?12;25h[39;35H[?25ldevhelp.el (source)...[K[H
[?12l[?25h[?12;25h[39;57H[?25ldone[H
[?12l[?25h[?12;25h[39;36H[?25lictionaries-common.el (source)...[H
[?12l[?25h[?12;25h[39;9H[?25ldebian-ispell...[K[H
[?12l[?25h[?12;25h[39;9H[?25l/var/cache/dictionaries-common/emacsen-ispell-default.el (source)...[H
[?12l[?25h[?12;25h[39;77H[?25ldone[H
[?12l[?25h[?12;25h[39;9H[?25ldebian-ispell...done[K[H
[?12l[?25h[?12;25h[39;9H[?25l/var/cache/dictionaries-common/emacsen-ispell-dicts.el (source)...[H
[?12l[?25h[?12;25h[39;75H[?25ldone[H
[?12l[?25h[?12;25h[39;10H[?25letc/emacs/site-start.d/50dictionaries-common[6P[H
[?12l[?25h[?12;25h[39;35H[?25lerlang-mode.el (source)...[K[H
[?12l[?25h[?12;25h[39;61H[?25ldone[H
[?12l[?25h[?12;25h[39;35H[?25lhaskell-mode.el (source)...[K[H
[?12l[?25h[?12;25h[39;10H[?25lusr/share/emacs/site-lisp/elpa/haskel[34@l-mode-16.1/haskell-mode-autoloads[H
[?12l[?25h[?12;25h[39;96H[?25ldone[H
[?12l[?25h[?12;25h[39;10H[?25letc/emacs/site-start.d/50haskell-mode[34P[H
[?12l[?25h[?12;25h[39;35H[?25llatex-cjk-common.el (source)...[H
[?12l[?25h[?12;25h[39;10H[?25lusr/share/emacs/site-lisp/latex-cjk-commo[9@n/cjk-enc[H
[?12l[?25h[?12;25h[39;75H[?25ldone[H
[?12l[?25h[?12;25h[39;10H[?25letc/emacs/site-start.d/50latex-cjk-common[9P[H
[?12l[?25h[?12;25h[39;45H[?25lthai.el (source)...[K[H
[?12l[?25h[?12;25h[39;64H[?25ldone[H
[?12l[?25h[?12;25h[39;35H[?25lpsvn.el (source)...[K[H
[?12l[?25h[?12;25h[39;54H[?25ldone[H
[?12l[?25h[?12;25h[39;36H[?25lython-docutils.el (source)...[H
[?12l[?25h[?12;25h[39;65H[?25ldone[H
[?12l[?25h[?12;25h[39;35H[?25ltcsh.el (source)...[K[H
[?12l[?25h[?12;25h[39;54H[?25ldone[H
[?12l[?25h[?12;25h[39;36H[?25lexlive-lang-english.el (source)...[H
[?12l[?25h[?12;25h[39;70H[?25ldone[H
[?12l[?25h[?12;25h[>0c[?2004h[?1004h[39d[?25lFor information about GNU Emacs and the GNU system, type C-h C-a.[K[H
[?12l[?25h[?12;25h[39d[?25lFor information about GNU Emacs and the GNU system, type C-h C-a.[K[H[7mFile Edit Options Buffers Tools Asm Help                                                                                                              [0m[39;49m[27m
[A
#Currently get_cpuid(int *eax, int *ebx, int *ecx, int *edx).[K
#Modify to get_cpuid(int cpuid_op, int *eax, int *ebx, int *ecx, int *edx).[K
#                     op = rdi,   eax = rsi, ebx = rdx, ecx = rcx, edx = r8[K
        [38;5;129m.text[39;49m[K
        [38;5;129m.globl[39;49m get_cpuid[K
[38;5;21mget_cpuid[39;49m:[K
        [38;5;129mpushq[39;49m   [38;5;130m%rcx[39;49m[K
        [38;5;129mpushq[39;49m   [38;5;130m%rdx[39;49m[K
        [38;5;129mmovl[39;49m    [38;5;130m%rdi[39;49m, ([38;5;130m%eax[39;49m)    #setup cpuid opcode to incoming cpuid_op[K
        [38;5;129mcpuid[39;49m[K
        #largest param in [38;5;130m%eax[39;49m[K
        #12-char manufacturer string in ebx, edx, ecx.[K
        [38;5;129mmovl[39;49m    [38;5;130m%eax[39;49m, ([38;5;130m%rsi[39;49m)    #store eax cpuid result[K
        [38;5;129mmovl[39;49m    [38;5;130m%ebx[39;49m, ([38;5;130m%rdx[39;49m)    #store ebx cpuid result[K
        [38;5;129mpopq[39;49m    [38;5;130m%rax[39;49m            #pop address for edxP[K
        [38;5;129mmovl[39;49m    [38;5;130m%edx[39;49m, ([38;5;130m%rax[39;49m)    #store edx cpuid result[K
        [38;5;129mpopq[39;49m    [38;5;130m%rax[39;49m            #pop address for ecxP[K
        [38;5;129mmovl[39;49m    [38;5;130m%ecx[39;49m, ([38;5;130m%rax[39;49m)    #store ecx cpuid result[K
        [38;5;129mret[39;49m[K
[K
[K
[K
[K
[K
[K
[K
[K
[K
[K
[K
[K
[K
[K
[K
[K
[K
[30m[48;5;250m-UU-:----F1  [39;49m[1m[30m[48;5;250mcpuid.s     [0m[39;49m[30m[48;5;250m   All L1    Git:lab8  (Assembler) 12:06PM 1.51 -----------------------------------------------------------------------------[39;49m
[A[2d[?12l[?25h[?12;25h[39d[K[38;34H[?25l[30m[48;5;250m2[39;49m[H

[?12l[?25h[?12;25h[38;34H[?25l[30m[48;5;250m3[39;49m[4;1H[?12l[?25h[?12;25h[38;34H[?25l[30m[48;5;250m4[39;49m[5;1H[?12l[?25h[?12;25h[38;34H[?25l[30m[48;5;250m5[39;49m[6;1H[?12l[?25h[?12;25h[38;34H[?25l[30m[48;5;250m6[39;49m[7;1H[?12l[?25h[?12;25h[38;34H[?25l[30m[48;5;250m7[39;49m[8;1H[?12l[?25h[?12;25h[38;34H[?25l[30m[48;5;250m8[39;49m[9;1H[?12l[?25h[?12;25h[38;34H[?25l[30m[48;5;250m9[39;49m[10;1H[?12l[?25h[?12;25h[38;34H[?25l[30m[48;5;250m10[39;49m[11;1H[?12l[?25h[?12;25h[38;34H[?25l[30m[48;5;250m9 [39;49m[10;1H[?12l[?25h[?12;25h	[C[C[C[C[?25l [38;6H[30m[48;5;250m**[39;49m[10;12H[?12l[?25h[?12;25h[?25l[38;5;129mq[39;49m[?12l[?25h[?12;25h[39;1H[?25lSaving file /home/epotapo1/i220a/submit/lab8/exercises/cpuid2/cpuid.s...[10;13H[?12l[?25h[?12;25h[39;1H[?25lWrote /home/epotapo1/i220a/submit/lab8/exercises/cpuid2/cpuid.s[K[10;13H[?12l[?25h[?12;25h[38;6H[?25l[30m[48;5;250m--[39;49m[10;13H[?12l[?25h[?12;25h[39;1H[K[10;13H[39;1H[K[?1004l[?2004l[?1l>[?12l[?25h[?1049l[23;0;0t[39;49mepotapo1@remote05:~/i220a/submit/lab8/exercises/cpuid2$ emacs cpuid.s [Kmake
cc -c -g -Wall -std=c18 cpuid.s -o cpuid.o
cc main.o cpuid.o -o cpuid
epotapo1@remote05:~/i220a/submit/lab8/exercises/cpuid2$ ./dpu[K[K[Kcpuid 
usage: ./cpuid CPUID_OP
epotapo1@remote05:~/i220a/submit/lab8/exercises/cpuid2$ ./cpuid 0
Segmentation fault
epotapo1@remote05:~/i220a/submit/lab8/exercises/cpuid2$ ./cpuid 0[K[4Pmakeemacs cpuid.s 
[?1049h[22;0;0t[?12;25h[?1h=[H[2J[39d[K[?1l>[?12l[?25h[?1049l[23;0;0t[39;49m[?1049h[22;0;0t[?12;25h[?1h=[H[2J[38d[?25l[30m[47m-UUU:----F1  [39;49m[1m[30m[47m*scratch*   [0m[39;49m[30m[47m   All L1     (Fundamental) -------------------------------------------------------------------------------------------------[39;49m
[A[2d[?12l[?25h[?12;25h[39d[?25lLoading /etc/emacs/site-start.d/00debian.el (source)...done[K[H
[?12l[?25h[?12;25h[39;33H[?25l50a2ps.el (source)...[K[H
[?12l[?25h[?12;25h[39;54H[?25ldone[H
[?12l[?25h[?12;25h[39;36H[?25lsymptote.el (source)...[H
[?12l[?25h[?12;25h[39;59H[?25ldone[H
[?12l[?25h[?12;25h[39;36H[?25lutoconf.el (source)...[K[H
[?12l[?25h[?12;25h[39;58H[?25ldone[H
[?12l[?25h[?12;25h[39;35H[?25lcmake-data.el (source)...[K[H
[?12l[?25h[?12;25h[39;60H[?25ldone[H
[?12l[?25h[?12;25h[39;35H[?25ldevhelp.el (source)...[K[H
[?12l[?25h[?12;25h[39;57H[?25ldone[H
[?12l[?25h[?12;25h[39;36H[?25lictionaries-common.el (source)...[H
[?12l[?25h[?12;25h[39;9H[?25ldebian-ispell...[K[H
[?12l[?25h[?12;25h[39;9H[?25l/var/cache/dictionaries-common/emacsen-ispell-default.el (source)...[H
[?12l[?25h[?12;25h[39;77H[?25ldone[H
[?12l[?25h[?12;25h[39;9H[?25ldebian-ispell...done[K[H
[?12l[?25h[?12;25h[39;9H[?25l/var/cache/dictionaries-common/emacsen-ispell-dicts.el (source)...[H
[?12l[?25h[?12;25h[39;75H[?25ldone[H
[?12l[?25h[?12;25h[39;10H[?25letc/emacs/site-start.d/50dictionaries-common[6P[H
[?12l[?25h[?12;25h[39;35H[?25lerlang-mode.el (source)...[K[H
[?12l[?25h[?12;25h[39;61H[?25ldone[H
[?12l[?25h[?12;25h[39;35H[?25lhaskell-mode.el (source)...[K[H
[?12l[?25h[?12;25h[39;10H[?25lusr/share/emacs/site-lisp/elpa/haskel[34@l-mode-16.1/haskell-mode-autoloads[H
[?12l[?25h[?12;25h[39;96H[?25ldone[H
[?12l[?25h[?12;25h[39;10H[?25letc/emacs/site-start.d/50haskell-mode[34P[H
[?12l[?25h[?12;25h[39;35H[?25llatex-cjk-common.el (source)...[H
[?12l[?25h[?12;25h[39;10H[?25lusr/share/emacs/site-lisp/latex-cjk-commo[9@n/cjk-enc[H
[?12l[?25h[?12;25h[39;75H[?25ldone[H
[?12l[?25h[?12;25h[39;10H[?25letc/emacs/site-start.d/50latex-cjk-common[9P[H
[?12l[?25h[?12;25h[39;45H[?25lthai.el (source)...[K[H
[?12l[?25h[?12;25h[39;64H[?25ldone[H
[?12l[?25h[?12;25h[39;35H[?25lpsvn.el (source)...[K[H
[?12l[?25h[?12;25h[39;54H[?25ldone[H
[?12l[?25h[?12;25h[39;36H[?25lython-docutils.el (source)...[H
[?12l[?25h[?12;25h[39;65H[?25ldone[H
[?12l[?25h[?12;25h[39;35H[?25ltcsh.el (source)...[K[H
[?12l[?25h[?12;25h[39;54H[?25ldone[H
[?12l[?25h[?12;25h[39;36H[?25lexlive-lang-english.el (source)...[H
[?12l[?25h[?12;25h[39;70H[?25ldone[H
[?12l[?25h[?12;25h[>0c[?2004h[?1004h[39d[?25lFor information about GNU Emacs and the GNU system, type C-h C-a.[K[H
[?12l[?25h[?12;25h[39d[?25lFor information about GNU Emacs and the GNU system, type C-h C-a.[K[H[7mFile Edit Options Buffers Tools Asm Help                                                                                                              [0m[39;49m[27m
[A
#Currently get_cpuid(int *eax, int *ebx, int *ecx, int *edx).[K
#Modify to get_cpuid(int cpuid_op, int *eax, int *ebx, int *ecx, int *edx).[K
#                     op = rdi,   eax = rsi, ebx = rdx, ecx = rcx, edx = r8[K
        [38;5;129m.text[39;49m[K
        [38;5;129m.globl[39;49m get_cpuid[K
[38;5;21mget_cpuid[39;49m:[K
        [38;5;129mpushq[39;49m   [38;5;130m%rcx[39;49m[K
        [38;5;129mpushq[39;49m   [38;5;130m%rdx[39;49m[K
        [38;5;129mmovq[39;49m    [38;5;130m%rdi[39;49m, ([38;5;130m%eax[39;49m)    #setup cpuid opcode to incoming cpuid_op[K
        [38;5;129mcpuid[39;49m[K
        #largest param in [38;5;130m%eax[39;49m[K
        #12-char manufacturer string in ebx, edx, ecx.[K
        [38;5;129mmovl[39;49m    [38;5;130m%eax[39;49m, ([38;5;130m%rsi[39;49m)    #store eax cpuid result[K
        [38;5;129mmovl[39;49m    [38;5;130m%ebx[39;49m, ([38;5;130m%rdx[39;49m)    #store ebx cpuid result[K
        [38;5;129mpopq[39;49m    [38;5;130m%rax[39;49m            #pop address for edxP[K
        [38;5;129mmovl[39;49m    [38;5;130m%edx[39;49m, ([38;5;130m%rax[39;49m)    #store edx cpuid result[K
        [38;5;129mpopq[39;49m    [38;5;130m%rax[39;49m            #pop address for ecxP[K
        [38;5;129mmovl[39;49m    [38;5;130m%ecx[39;49m, ([38;5;130m%rax[39;49m)    #store ecx cpuid result[K
        [38;5;129mret[39;49m[K
[K
[K
[K
[K
[K
[K
[K
[K
[K
[K
[K
[K
[K
[K
[K
[K
[K
[30m[48;5;250m-UU-:----F1  [39;49m[1m[30m[48;5;250mcpuid.s     [0m[39;49m[30m[48;5;250m   All L1    Git:lab8  (Assembler) 12:06PM 1.49 -----------------------------------------------------------------------------[39;49m
[A[2d[?12l[?25h[?12;25h[39d[K[38;34H[?25l[30m[48;5;250m2[39;49m[H

[?12l[?25h[?12;25h[38;34H[?25l[30m[48;5;250m3[39;49m[4;1H[?12l[?25h[?12;25h[38;34H[?25l[30m[48;5;250m4[39;49m[5;1H[?12l[?25h[?12;25h[38;34H[?25l[30m[48;5;250m5[39;49m[6;1H[?12l[?25h[?12;25h[38;34H[?25l[30m[48;5;250m6[39;49m[7;1H[?12l[?25h[?12;25h[38;34H[?25l[30m[48;5;250m7[39;49m[8;1H[?12l[?25h[?12;25h[38;34H[?25l[30m[48;5;250m8[39;49m[9;1H[?12l[?25h[?12;25h[38;34H[?25l[30m[48;5;250m9[39;49m[10;1H[?12l[?25h[?12;25h	[C[C[C[C[C[?25l [38;6H[30m[48;5;250m**[39;49m[10;12H[?12l[?25h[?12;25h[?25l[38;5;129ml[39;49m[?12l[?25h[?12;25h[C	[C[C[?25l[38;5;130mdi[39;49m, ([38;5;130m%eax[39;49m) [10;18H[?12l[?25h[?12;25h[?25l[38;5;130medi[39;49m, ([38;5;130m%eax[39;49m)[10;19H[?12l[?25h[?12;25h[C[C[C[C[39;1H[?25lSaving file /home/epotapo1/i220a/submit/lab8/exercises/cpuid2/cpuid.s...[10;23H[?12l[?25h[?12;25h[39;1H[?25lWrote /home/epotapo1/i220a/submit/lab8/exercises/cpuid2/cpuid.s[K[10;23H[?12l[?25h[?12;25h[38;6H[?25l[30m[48;5;250m--[39;49m[10;23H[?12l[?25h[?12;25h[39;1H[K[10;23H[39;1H[K[?1004l[?2004l[?1l>[?12l[?25h[?1049l[23;0;0t[39;49mepotapo1@remote05:~/i220a/submit/lab8/exercises/cpuid2$ emacs cpuid.s [Kmake
cc -c -g -Wall -std=c18 cpuid.s -o cpuid.o
cc main.o cpuid.o -o cpuid
epotapo1@remote05:~/i220a/submit/lab8/exercises/cpuid2$ makeemacs cpuid.s [5P./cpuid 0
Segmentation fault
epotapo1@remote05:~/i220a/submit/lab8/exercises/cpuid2$ ./cpuid 0[5Pmakeemacs cpuid.s [5P./cpuid 0emacs cpuid.s 
[?1049h[22;0;0t[?12;25h[?1h=[H[2J[39d[K[?1l>[?12l[?25h[?1049l[23;0;0t[39;49m[?1049h[22;0;0t[?12;25h[?1h=[H[2J[38d[?25l[30m[47m-UUU:----F1  [39;49m[1m[30m[47m*scratch*   [0m[39;49m[30m[47m   All L1     (Fundamental) -------------------------------------------------------------------------------------------------[39;49m
[A[2d[?12l[?25h[?12;25h[39d[?25lLoading /etc/emacs/site-start.d/00debian.el (source)...done[K[H
[?12l[?25h[?12;25h[39;33H[?25l50a2ps.el (source)...[K[H
[?12l[?25h[?12;25h[39;54H[?25ldone[H
[?12l[?25h[?12;25h[39;36H[?25lsymptote.el (source)...[H
[?12l[?25h[?12;25h[39;59H[?25ldone[H
[?12l[?25h[?12;25h[39;36H[?25lutoconf.el (source)...[K[H
[?12l[?25h[?12;25h[39;58H[?25ldone[H
[?12l[?25h[?12;25h[39;35H[?25lcmake-data.el (source)...[K[H
[?12l[?25h[?12;25h[39;60H[?25ldone[H
[?12l[?25h[?12;25h[39;35H[?25ldevhelp.el (source)...[K[H
[?12l[?25h[?12;25h[39;57H[?25ldone[H
[?12l[?25h[?12;25h[39;36H[?25lictionaries-common.el (source)...[H
[?12l[?25h[?12;25h[39;9H[?25ldebian-ispell...[K[H
[?12l[?25h[?12;25h[39;9H[?25l/var/cache/dictionaries-common/emacsen-ispell-default.el (source)...[H
[?12l[?25h[?12;25h[39;77H[?25ldone[H
[?12l[?25h[?12;25h[39;9H[?25ldebian-ispell...done[K[H
[?12l[?25h[?12;25h[39;9H[?25l/var/cache/dictionaries-common/emacsen-ispell-dicts.el (source)...[H
[?12l[?25h[?12;25h[39;75H[?25ldone[H
[?12l[?25h[?12;25h[39;10H[?25letc/emacs/site-start.d/50dictionaries-common[6P[H
[?12l[?25h[?12;25h[39;35H[?25lerlang-mode.el (source)...[K[H
[?12l[?25h[?12;25h[39;61H[?25ldone[H
[?12l[?25h[?12;25h[39;35H[?25lhaskell-mode.el (source)...[K[H
[?12l[?25h[?12;25h[39;10H[?25lusr/share/emacs/site-lisp/elpa/haskel[34@l-mode-16.1/haskell-mode-autoloads[H
[?12l[?25h[?12;25h[39;96H[?25ldone[H
[?12l[?25h[?12;25h[39;10H[?25letc/emacs/site-start.d/50haskell-mode[34P[H
[?12l[?25h[?12;25h[39;35H[?25llatex-cjk-common.el (source)...[H
[?12l[?25h[?12;25h[39;10H[?25lusr/share/emacs/site-lisp/latex-cjk-commo[9@n/cjk-enc[H
[?12l[?25h[?12;25h[39;75H[?25ldone[H
[?12l[?25h[?12;25h[39;10H[?25letc/emacs/site-start.d/50latex-cjk-common[9P[H
[?12l[?25h[?12;25h[39;45H[?25lthai.el (source)...[K[H
[?12l[?25h[?12;25h[39;64H[?25ldone[H
[?12l[?25h[?12;25h[39;35H[?25lpsvn.el (source)...[K[H
[?12l[?25h[?12;25h[39;54H[?25ldone[H
[?12l[?25h[?12;25h[39;36H[?25lython-docutils.el (source)...[H
[?12l[?25h[?12;25h[39;65H[?25ldone[H
[?12l[?25h[?12;25h[39;35H[?25ltcsh.el (source)...[K[H
[?12l[?25h[?12;25h[39;54H[?25ldone[H
[?12l[?25h[?12;25h[39;36H[?25lexlive-lang-english.el (source)...[H
[?12l[?25h[?12;25h[39;70H[?25ldone[H
[?12l[?25h[?12;25h[>0c[?2004h[?1004h[39d[?25lFor information about GNU Emacs and the GNU system, type C-h C-a.[K[H
[?12l[?25h[?12;25h[39d[?25lFor information about GNU Emacs and the GNU system, type C-h C-a.[K[H[7mFile Edit Options Buffers Tools Asm Help                                                                                                              [0m[39;49m[27m
[A
#Currently get_cpuid(int *eax, int *ebx, int *ecx, int *edx).[K
#Modify to get_cpuid(int cpuid_op, int *eax, int *ebx, int *ecx, int *edx).[K
#                     op = rdi,   eax = rsi, ebx = rdx, ecx = rcx, edx = r8[K
        [38;5;129m.text[39;49m[K
        [38;5;129m.globl[39;49m get_cpuid[K
[38;5;21mget_cpuid[39;49m:[K
        [38;5;129mpushq[39;49m   [38;5;130m%rcx[39;49m[K
        [38;5;129mpushq[39;49m   [38;5;130m%rdx[39;49m[K
        [38;5;129mmovl[39;49m    [38;5;130m%edi[39;49m, ([38;5;130m%eax[39;49m)    #setup cpuid opcode to incoming cpuid_op[K
        [38;5;129mcpuid[39;49m[K
        #largest param in [38;5;130m%eax[39;49m[K
        #12-char manufacturer string in ebx, edx, ecx.[K
        [38;5;129mmovl[39;49m    [38;5;130m%eax[39;49m, ([38;5;130m%rsi[39;49m)    #store eax cpuid result[K
        [38;5;129mmovl[39;49m    [38;5;130m%ebx[39;49m, ([38;5;130m%rdx[39;49m)    #store ebx cpuid result[K
        [38;5;129mpopq[39;49m    [38;5;130m%rax[39;49m            #pop address for edxP[K
        [38;5;129mmovl[39;49m    [38;5;130m%edx[39;49m, ([38;5;130m%rax[39;49m)    #store edx cpuid result[K
        [38;5;129mpopq[39;49m    [38;5;130m%rax[39;49m            #pop address for ecxP[K
        [38;5;129mmovl[39;49m    [38;5;130m%ecx[39;49m, ([38;5;130m%rax[39;49m)    #store ecx cpuid result[K
        [38;5;129mret[39;49m[K
[K
[K
[K
[K
[K
[K
[K
[K
[K
[K
[K
[K
[K
[K
[K
[K
[K
[30m[48;5;250m-UU-:----F1  [39;49m[1m[30m[48;5;250mcpuid.s     [0m[39;49m[30m[48;5;250m   All L1    Git:lab8  (Assembler) 12:07PM 1.45 -----------------------------------------------------------------------------[39;49m
[A[2d[?12l[?25h[?12;25h[39d[K[38;34H[?25l[30m[48;5;250m2[39;49m[H

[?12l[?25h[?12;25h[38;34H[?25l[30m[48;5;250m3[39;49m[4;1H[?12l[?25h[?12;25h[38;34H[?25l[30m[48;5;250m4[39;49m[5;1H[?12l[?25h[?12;25h[38;34H[?25l[30m[48;5;250m5[39;49m[6;1H[?12l[?25h[?12;25h[38;34H[?25l[30m[48;5;250m6[39;49m[7;1H[?12l[?25h[?12;25h[38;34H[?25l[30m[48;5;250m7[39;49m[8;1H[?12l[?25h[?12;25h[38;34H[?25l[30m[48;5;250m8[39;49m[9;1H[?12l[?25h[?12;25h[38;34H[?25l[30m[48;5;250m9[39;49m[10;1H[?12l[?25h[?12;25h	[C[C[C[C[?25l [38;6H[30m[48;5;250m**[39;49m[10;12H[?12l[?25h[?12;25h[?25l[38;5;129mq[39;49m[?12l[?25h[?12;25h[C	[C[C[?25l[38;5;130mdi[39;49m, ([38;5;130m%eax[39;49m) [10;18H[?12l[?25h[?12;25h[?25l[38;5;130mrdi[39;49m, ([38;5;130m%eax[39;49m)[10;19H[?12l[?25h[?12;25h[38;34H[?25l[30m[48;5;250m10[39;49m[11;14H[?12l[?25h[?12;25h[38;35H[?25l[30m[48;5;250m1[39;49m[12;19H[?12l[?25h[?12;25h[38;35H[?25l[30m[48;5;250m2[39;49m[13;19H[?12l[?25h[?12;25h[39;1H[?25lSaving file /home/epotapo1/i220a/submit/lab8/exercises/cpuid2/cpuid.s...[13;19H[?12l[?25h[?12;25h[39;1H[?25lWrote /home/epotapo1/i220a/submit/lab8/exercises/cpuid2/cpuid.s[K[13;19H[?12l[?25h[?12;25h[38;6H[?25l[30m[48;5;250m--[39;49m[13;19H[?12l[?25h[?12;25h[39;1H[K[38;35H[?25l[30m[48;5;250m3[39;49m[14;19H[?12l[?25h[?12;25h[38;35H[?25l[30m[48;5;250m4[39;49m[15;19H[?12l[?25h[?12;25h[38;35H[?25l[30m[48;5;250m5[39;49m[16;19H[?12l[?25h[?12;25h[38;35H[?25l[30m[48;5;250m6[39;49m[17;19H[?12l[?25h[?12;25h[38;35H[?25l[30m[48;5;250m7[39;49m[18;19H[?12l[?25h[?12;25h[38;35H[?25l[30m[48;5;250m8[39;49m[19;19H[?12l[?25h[?12;25h[38;35H[?25l[30m[48;5;250m7[39;49m[18;19H[?12l[?25h[?12;25h[38;35H[?25l[30m[48;5;250m6[39;49m[17;19H[?12l[?25h[?12;25h[38;35H[?25l[30m[48;5;250m5[39;49m[16;19H[?12l[?25h[?12;25h[38;35H[?25l[30m[48;5;250m4[39;49m[15;19H[?12l[?25h[?12;25h[38;35H[?25l[30m[48;5;250m5[39;49m[16;19H[?12l[?25h[?12;25h[38;35H[?25l[30m[48;5;250m6[39;49m[17;19H[?12l[?25h[?12;25h[C[C[C[38;35H[?25l[30m[48;5;250m5[39;49m[16;21H[?12l[?25h[?12;25h[38;35H[?25l[30m[48;5;250m4[39;49m[15;22H[?12l[?25h[?12;25h[38;35H[?25l[30m[48;5;250m3[39;49m[14;22H[?12l[?25h[?12;25h[38;35H[?25l[30m[48;5;250m2[39;49m[13;22H[?12l[?25h[?12;25h[38;65H[?25l[30m[48;5;250m8PM 1.78[39;49m[13;22H[?12l[?25h[?12;25h[38;65H[?25l[30m[48;5;250m9PM 1.80[39;49m[13;22H[?12l[?25h[?12;25h[38;35H[?25l[30m[48;5;250m3[39;49m[14;22H[?12l[?25h[?12;25h[38;35H[?25l[30m[48;5;250m4[39;49m[15;22H[?12l[?25h[?12;25h[C		[C[C[C[C	[C[C[C[C[C[C		[C[C[C[C[C[C		[C[C[C[C[C[C	[K[38;6H[?25l[30m[48;5;250m**[39;49m[15;55H[?12l[?25h[?12;25h[K[K[K[K[K[C[K[K[K[K[K[C[K[K[K	[K[K[K[K[K[K	[K[K[K[?25l%[K[?12l[?25h[?12;25h[K[K[C[K[K[K[?25l%[K[?12l[?25h[?12;25h[K	[K[K[K[K	[1;37r[16;1H[1M[1;39r[15;9H[?25l[38;5;129mpopq[39;49m    [38;5;130m%rax[39;49m            #pop address for edxP[37;1H[K[38;35H[30m[48;5;250m3[39;49m[14;56H[?12l[?25h[?12;25h[38;35H[?25l[30m[48;5;250m4[39;49m[15;54H[?12l[?25h[?12;25h[?25lxP[K[?12l[?25h[?12;25h[?25lbxP[?12l[?25h[?12;25h[38;35H[?25l[30m[48;5;250m5[39;49m[16;52H[?12l[?25h[?12;25h[38;35H[?25l[30m[48;5;250m6[39;49m[17;52H[?12l[?25h[?12;25h[?25lxP[K[?12l[?25h[?12;25h[?25lcxP[?12l[?25h[?12;25h[38;35H[?25l[30m[48;5;250m5[39;49m[16;52H[?12l[?25h[?12;25h[38;35H[?25l[30m[48;5;250m4[39;49m[15;52H[?12l[?25h[?12;25h[38;35H[?25l[30m[48;5;250m3[39;49m[14;51H[?12l[?25h[?12;25h[38;35H[?25l[30m[48;5;250m4[39;49m[15;51H[?12l[?25h[?12;25h[38;35H[?25l[30m[48;5;250m5[39;49m[16;51H[?12l[?25h[?12;25h[38;35H[?25l[30m[48;5;250m4[39;49m[15;50H[?12l[?25h[?12;25h[38;35H[?25l[30m[48;5;250m5[39;49m[16;50H[?12l[?25h[?12;25h[38;35H[?25l[30m[48;5;250m4[39;49m[15;49H[?12l[?25h[?12;25h[38;35H[?25l[30m[48;5;250m5[39;49m[16;47H[?12l[?25h[?12;25h[38;64H[?25l[30m[48;5;250m10PM 1.61[39;49m[16;20H[?12l[?25h[?12;25h[C[C[C	[38;35H[?25l[30m[48;5;250m4[39;49m[15;21H[?12l[?25h[?12;25h[38;35H[?25l[30m[48;5;250m5[39;49m[16;24H[?12l[?25h[?12;25h[39;1H[?25lAuto-saving...[16;24H[?12l[?25h[?12;25h[39;15H[?25ldone[16;24H[?12l[?25h[?12;25h[39;1H[K[38;35H[?25l[30m[48;5;250m6[39;49m[17;21H[?12l[?25h[?12;25h		[38;35H[?25l[30m[48;5;250m5[39;49m[16;33H[?12l[?25h[?12;25h[38;35H[?25l[30m[48;5;250m4[39;49m[15;33H[?12l[?25h[?12;25h[C[C[C[C[C[C		[C[C[C[C[C[C		[C[C[C[38;65H[?25l[30m[48;5;250m1PM 1.35[39;49m[15;52H[?12l[?25h[?12;25h[39;1H[?25lSaving file /home/epotapo1/i220a/submit/lab8/exercises/cpuid2/cpuid.s...[15;52H[?12l[?25h[?12;25h[39;1H[?25lWrote /home/epotapo1/i220a/submit/lab8/exercises/cpuid2/cpuid.s[K[15;52H[?12l[?25h[?12;25h[38;6H[?25l[30m[48;5;250m--[39;49m[15;52H[?12l[?25h[?12;25h[39;1H[K[15;52H[39;1H[K[?1004l[?2004l[?1l>[?12l[?25h[?1049l[23;0;0t[39;49mepotapo1@remote05:~/i220a/submit/lab8/exercises/cpuid2$ emacs cpuid.s [5P./cpuid 0[5Pmakeemacs cpuid.s [5P./cpuid 0[K[4Pmakeemacs cpuid.s make[Kemacs cpuid.s [1Pcd ../cpuid2/emacs cpuid.s ls[Kcd ../cpuid1/
epotapo1@remote05:~/i220a/submit/lab8/exercises/cpuid1$ e[Kemacs s[Kcpuid.s
[?1049h[22;0;0t[?12;25h[?1h=[H[2J[39d[K[?1l>[?12l[?25h[?1049l[23;0;0t[39;49m[?1049h[22;0;0t[?12;25h[?1h=[H[2J[38d[?25l[30m[47m-UUU:----F1  [39;49m[1m[30m[47m*scratch*   [0m[39;49m[30m[47m   All L1     (Fundamental) -------------------------------------------------------------------------------------------------[39;49m
[A[2d[?12l[?25h[?12;25h[39d[?25lLoading /etc/emacs/site-start.d/00debian.el (source)...done[K[H
[?12l[?25h[?12;25h[39;33H[?25l50a2ps.el (source)...[K[H
[?12l[?25h[?12;25h[39;54H[?25ldone[H
[?12l[?25h[?12;25h[39;36H[?25lsymptote.el (source)...[H
[?12l[?25h[?12;25h[39;59H[?25ldone[H
[?12l[?25h[?12;25h[39;36H[?25lutoconf.el (source)...[K[H
[?12l[?25h[?12;25h[39;58H[?25ldone[H
[?12l[?25h[?12;25h[39;35H[?25lcmake-data.el (source)...[K[H
[?12l[?25h[?12;25h[39;60H[?25ldone[H
[?12l[?25h[?12;25h[39;35H[?25ldevhelp.el (source)...[K[H
[?12l[?25h[?12;25h[39;57H[?25ldone[H
[?12l[?25h[?12;25h[39;36H[?25lictionaries-common.el (source)...[H
[?12l[?25h[?12;25h[39;9H[?25ldebian-ispell...[K[H
[?12l[?25h[?12;25h[39;9H[?25l/var/cache/dictionaries-common/emacsen-ispell-default.el (source)...[H
[?12l[?25h[?12;25h[39;77H[?25ldone[H
[?12l[?25h[?12;25h[39;9H[?25ldebian-ispell...done[K[H
[?12l[?25h[?12;25h[39;9H[?25l/var/cache/dictionaries-common/emacsen-ispell-dicts.el (source)...[H
[?12l[?25h[?12;25h[39;75H[?25ldone[H
[?12l[?25h[?12;25h[39;10H[?25letc/emacs/site-start.d/50dictionaries-common[6P[H
[?12l[?25h[?12;25h[39;35H[?25lerlang-mode.el (source)...[K[H
[?12l[?25h[?12;25h[39;61H[?25ldone[H
[?12l[?25h[?12;25h[39;35H[?25lhaskell-mode.el (source)...[K[H
[?12l[?25h[?12;25h[39;10H[?25lusr/share/emacs/site-lisp/elpa/haskel[34@l-mode-16.1/haskell-mode-autoloads[H
[?12l[?25h[?12;25h[39;96H[?25ldone[H
[?12l[?25h[?12;25h[39;10H[?25letc/emacs/site-start.d/50haskell-mode[34P[H
[?12l[?25h[?12;25h[39;35H[?25llatex-cjk-common.el (source)...[H
[?12l[?25h[?12;25h[39;10H[?25lusr/share/emacs/site-lisp/latex-cjk-commo[9@n/cjk-enc[H
[?12l[?25h[?12;25h[39;75H[?25ldone[H
[?12l[?25h[?12;25h[39;10H[?25letc/emacs/site-start.d/50latex-cjk-common[9P[H
[?12l[?25h[?12;25h[39;45H[?25lthai.el (source)...[K[H
[?12l[?25h[?12;25h[39;64H[?25ldone[H
[?12l[?25h[?12;25h[39;35H[?25lpsvn.el (source)...[K[H
[?12l[?25h[?12;25h[39;54H[?25ldone[H
[?12l[?25h[?12;25h[39;36H[?25lython-docutils.el (source)...[H
[?12l[?25h[?12;25h[39;65H[?25ldone[H
[?12l[?25h[?12;25h[39;35H[?25ltcsh.el (source)...[K[H
[?12l[?25h[?12;25h[39;54H[?25ldone[H
[?12l[?25h[?12;25h[39;36H[?25lexlive-lang-english.el (source)...[H
[?12l[?25h[?12;25h[39;70H[?25ldone[H
[?12l[?25h[?12;25h[>0c[?2004h[?1004h[39d[?25lFor information about GNU Emacs and the GNU system, type C-h C-a.[K[H
[?12l[?25h[?12;25h[39d[?25lFor information about GNU Emacs and the GNU system, type C-h C-a.[K[H[7mFile Edit Options Buffers Tools Asm Help                                                                                                              [0m[39;49m[27m
[A
#get_cpuid(int *eaxP, int *ebxP, int *ecxP, int *edxP).[K
#rdi = eaxP, rsi = ebxP, rdx = edxP, rcx = ecxP[K
        [38;5;129m.text[39;49m[K
        [38;5;129m.globl[39;49m get_cpuid[K
[38;5;21mget_cpuid[39;49m:[K
        [38;5;129mpushq[39;49m   [38;5;130m%rcx[39;49m[K
        [38;5;129mpushq[39;49m   [38;5;130m%rdx[39;49m[K
        [38;5;129mxorl[39;49m    [38;5;130m%eax[39;49m, [38;5;130m%eax[39;49m      #setup cpuid opcode to 0[K
        [38;5;129mcpuid[39;49m[K
        #largest param in [38;5;130m%eax[39;49m[K
        #12-char manufacturer string in ebx, edx, ecx.[K
        [38;5;129mmovl[39;49m    [38;5;130m%eax[39;49m, ([38;5;130m%rdi[39;49m)    #store eax cpuid result[K
        [38;5;129mmovl[39;49m    [38;5;130m%ebx[39;49m, ([38;5;130m%rsi[39;49m)    #store ebx cpuid result[K
        [38;5;129mpopq[39;49m    [38;5;130m%rax[39;49m            #pop address for edxP[K
        [38;5;129mmovl[39;49m    [38;5;130m%edx[39;49m, ([38;5;130m%rax[39;49m)    #store edx cpuid result[K
        [38;5;129mpopq[39;49m    [38;5;130m%rax[39;49m            #pop address for ecxP[K
        [38;5;129mmovl[39;49m    [38;5;130m%ecx[39;49m, ([38;5;130m%rax[39;49m)    #store ecx cpuid result[K
        [38;5;129mret[39;49m[K
[K
[K
[K
[K
[K
[K
[K
[K
[K
[K
[K
[K
[K
[K
[K
[K
[K
[K
[30m[48;5;250m-UU-:----F1  [39;49m[1m[30m[48;5;250mcpuid.s     [0m[39;49m[30m[48;5;250m   All L1    Git-lab8  (Assembler) 12:11PM 1.55 -----------------------------------------------------------------------------[39;49m
[A[2d[?12l[?25h[?12;25h[38;65H[?25l[30m[48;5;250m2PM 1.66[39;49m[H
[?12l[?25h[?12;25h[38;65H[?25l[30m[48;5;250m3PM 1.33[39;49m[H
[?12l[?25h[?12;25h[38;65H[?25l[30m[48;5;250m4PM 0.80[39;49m[H
[?12l[?25h[?12;25h[39d[K[2d[39d[K[?1004l[?2004l[?1l>[?12l[?25h[?1049l[23;0;0t[39;49mepotapo1@remote05:~/i220a/submit/lab8/exercises/cpuid1$ cd ../cpuid2/
epotapo1@remote05:~/i220a/submit/lab8/exercises/cpuid2$ ls [K[K[Kemacs cpuid.s
[?1049h[22;0;0t[?12;25h[?1h=[H[2J[39d[K[?1l>[?12l[?25h[?1049l[23;0;0t[39;49m[?1049h[22;0;0t[?12;25h[?1h=[H[2J[38d[?25l[30m[47m-UUU:----F1  [39;49m[1m[30m[47m*scratch*   [0m[39;49m[30m[47m   All L1     (Fundamental) -------------------------------------------------------------------------------------------------[39;49m
[A[2d[?12l[?25h[?12;25h[39d[?25lLoading /etc/emacs/site-start.d/00debian.el (source)...done[K[H
[?12l[?25h[?12;25h[39;33H[?25l50a2ps.el (source)...[K[H
[?12l[?25h[?12;25h[39;54H[?25ldone[H
[?12l[?25h[?12;25h[39;36H[?25lsymptote.el (source)...[H
[?12l[?25h[?12;25h[39;59H[?25ldone[H
[?12l[?25h[?12;25h[39;36H[?25lutoconf.el (source)...[K[H
[?12l[?25h[?12;25h[39;58H[?25ldone[H
[?12l[?25h[?12;25h[39;35H[?25lcmake-data.el (source)...[K[H
[?12l[?25h[?12;25h[39;60H[?25ldone[H
[?12l[?25h[?12;25h[39;35H[?25ldevhelp.el (source)...[K[H
[?12l[?25h[?12;25h[39;57H[?25ldone[H
[?12l[?25h[?12;25h[39;36H[?25lictionaries-common.el (source)...[H
[?12l[?25h[?12;25h[39;9H[?25ldebian-ispell...[K[H
[?12l[?25h[?12;25h[39;9H[?25l/var/cache/dictionaries-common/emacsen-ispell-default.el (source)...[H
[?12l[?25h[?12;25h[39;77H[?25ldone[H
[?12l[?25h[?12;25h[39;9H[?25ldebian-ispell...done[K[H
[?12l[?25h[?12;25h[39;9H[?25l/var/cache/dictionaries-common/emacsen-ispell-dicts.el (source)...[H
[?12l[?25h[?12;25h[39;75H[?25ldone[H
[?12l[?25h[?12;25h[39;10H[?25letc/emacs/site-start.d/50dictionaries-common[6P[H
[?12l[?25h[?12;25h[39;35H[?25lerlang-mode.el (source)...[K[H
[?12l[?25h[?12;25h[39;61H[?25ldone[H
[?12l[?25h[?12;25h[39;35H[?25lhaskell-mode.el (source)...[K[H
[?12l[?25h[?12;25h[39;10H[?25lusr/share/emacs/site-lisp/elpa/haskel[34@l-mode-16.1/haskell-mode-autoloads[H
[?12l[?25h[?12;25h[39;96H[?25ldone[H
[?12l[?25h[?12;25h[39;10H[?25letc/emacs/site-start.d/50haskell-mode[34P[H
[?12l[?25h[?12;25h[39;35H[?25llatex-cjk-common.el (source)...[H
[?12l[?25h[?12;25h[39;10H[?25lusr/share/emacs/site-lisp/latex-cjk-commo[9@n/cjk-enc[H
[?12l[?25h[?12;25h[39;75H[?25ldone[H
[?12l[?25h[?12;25h[39;10H[?25letc/emacs/site-start.d/50latex-cjk-common[9P[H
[?12l[?25h[?12;25h[39;45H[?25lthai.el (source)...[K[H
[?12l[?25h[?12;25h[39;64H[?25ldone[H
[?12l[?25h[?12;25h[39;35H[?25lpsvn.el (source)...[K[H
[?12l[?25h[?12;25h[39;54H[?25ldone[H
[?12l[?25h[?12;25h[39;36H[?25lython-docutils.el (source)...[H
[?12l[?25h[?12;25h[39;65H[?25ldone[H
[?12l[?25h[?12;25h[39;35H[?25ltcsh.el (source)...[K[H
[?12l[?25h[?12;25h[39;54H[?25ldone[H
[?12l[?25h[?12;25h[39;36H[?25lexlive-lang-english.el (source)...[H
[?12l[?25h[?12;25h[39;70H[?25ldone[H
[?12l[?25h[?12;25h[>0c[?2004h[?1004h[39d[?25lFor information about GNU Emacs and the GNU system, type C-h C-a.[K[H
[?12l[?25h[?12;25h[39d[?25lFor information about GNU Emacs and the GNU system, type C-h C-a.[K[H[7mFile Edit Options Buffers Tools Asm Help                                                                                                              [0m[39;49m[27m
[A
#Currently get_cpuid(int *eax, int *ebx, int *ecx, int *edx).[K
#Modify to get_cpuid(int cpuid_op, int *eax, int *ebx, int *ecx, int *edx).[K
#                     op = rdi,   eax = rsi, ebx = rdx, ecx = rcx, edx = r8[K
        [38;5;129m.text[39;49m[K
        [38;5;129m.globl[39;49m get_cpuid[K
[38;5;21mget_cpuid[39;49m:[K
        [38;5;129mpushq[39;49m   [38;5;130m%rcx[39;49m[K
        [38;5;129mpushq[39;49m   [38;5;130m%rdx[39;49m[K
        [38;5;129mmovq[39;49m    [38;5;130m%rdi[39;49m, ([38;5;130m%eax[39;49m)    #setup cpuid opcode to incoming cpuid_op[K
        [38;5;129mcpuid[39;49m[K
        #largest param in [38;5;130m%eax[39;49m[K
        #12-char manufacturer string in ebx, edx, ecx.[K
        [38;5;129mmovl[39;49m    [38;5;130m%eax[39;49m, ([38;5;130m%rsi[39;49m)    #store eax cpuid result[K
        [38;5;129mpopq[39;49m    [38;5;130m%rax[39;49m            #pop address for ebxP[K
        [38;5;129mmovl[39;49m    [38;5;130m%edx[39;49m, ([38;5;130m%rax[39;49m)    #store edx cpuid result[K
        [38;5;129mpopq[39;49m    [38;5;130m%rax[39;49m            #pop address for ecxP[K
        [38;5;129mmovl[39;49m    [38;5;130m%ecx[39;49m, ([38;5;130m%rax[39;49m)    #store ecx cpuid result[K
        [38;5;129mret[39;49m[K
[K
[K
[K
[K
[K
[K
[K
[K
[K
[K
[K
[K
[K
[K
[K
[K
[K
[K
[30m[48;5;250m-UU-:----F1  [39;49m[1m[30m[48;5;250mcpuid.s     [0m[39;49m[30m[48;5;250m   All L1    Git:lab8  (Assembler) 12:14PM 0.51 -----------------------------------------------------------------------------[39;49m
[A[2d[?12l[?25h[?12;25h[38;65H[?25l[30m[48;5;250m5PM 0.70[39;49m[H
[?12l[?25h[?12;25h[39d[K[38;34H[?25l[30m[48;5;250m2[39;49m[H

[?12l[?25h[?12;25h[38;34H[?25l[30m[48;5;250m3[39;49m[4;1H[?12l[?25h[?12;25h[38;34H[?25l[30m[48;5;250m4[39;49m[5;1H[?12l[?25h[?12;25h[38;34H[?25l[30m[48;5;250m5[39;49m[6;1H[?12l[?25h[?12;25h[38;34H[?25l[30m[48;5;250m6[39;49m[7;1H[?12l[?25h[?12;25h[38;34H[?25l[30m[48;5;250m7[39;49m[8;1H[?12l[?25h[?12;25h[38;34H[?25l[30m[48;5;250m8[39;49m[9;1H[?12l[?25h[?12;25h[38;34H[?25l[30m[48;5;250m9[39;49m[10;1H[?12l[?25h[?12;25h[38;34H[?25l[30m[48;5;250m10[39;49m[11;1H[?12l[?25h[?12;25h[38;35H[?25l[30m[48;5;250m1[39;49m[12;1H[?12l[?25h[?12;25h[38;35H[?25l[30m[48;5;250m2[39;49m[13;1H[?12l[?25h[?12;25h[38;35H[?25l[30m[48;5;250m3[39;49m[14;1H[?12l[?25h[?12;25h[38;35H[?25l[30m[48;5;250m4[39;49m[15;1H[?12l[?25h[?12;25h[38;35H[?25l[30m[48;5;250m5[39;49m[16;1H[?12l[?25h[?12;25h	[C[C[C[C[C[C	[38;35H[?25l[30m[48;5;250m6[39;49m[17;16H[?12l[?25h[?12;25h	[38;35H[?25l[30m[48;5;250m5[39;49m[16;17H[?12l[?25h[?12;25h[C[C[C[?25l[1P[38;6H[30m[48;5;250m**[39;49m[16;19H[?12l[?25h[?12;25h[?25l[1@[38;5;130mb[39;49m[?12l[?25h[?12;25h[38;35H[?25l[30m[48;5;250m6[39;49m[17;20H[?12l[?25h[?12;25h[38;35H[?25l[30m[48;5;250m7[39;49m[18;20H[?12l[?25h[?12;25h[C[C[C		[C[C[C[C	[C[C[C[C[C[C		[C[C[C[C[C[C		[C[C[C[C[C[C	[1;37r[20;1H[1L[1;39r[19;1H[K
[?25l        [38;5;129mret[39;49m[K[38;35H[30m[48;5;250m8[39;49m[19;9H[?12l[?25h[?12;25h[38;65H[?25l[30m[48;5;250m6PM 1.64[39;49m[19;9H[?12l[?25h[?12;25h[?25l[38;5;129mm[39;49m[?12l[?25h[?12;25h[?25l[38;5;129mo[39;49m[?12l[?25h[?12;25h[?25l[38;5;129mv[39;49m[?12l[?25h[?12;25h[?25l[38;5;129ml[39;49m[?12l[?25h[?12;25h	[?25l%[?12l[?25h[?12;25h[?25l[38;5;130m%e[39;49m[?12l[?25h[?12;25h[?25l[38;5;130md[39;49m[?12l[?25h[?12;25h[?25l[38;5;130mx[39;49m[?12l[?25h[?12;25h[?25l,[?12l[?25h[?12;25h[C[?25l([?12l[?25h[?12;25h[?25l%[?12l[?25h[?12;25h[?25l[38;5;130m%r[39;49m[?12l[?25h[?12;25h[?25l[38;5;130m8[39;49m[?12l[?25h[?12;25h[?25l[48;5;80m([39;49m[38;5;130m%r8[39;49m)[?12l[?25h[?12;25h[?25l([19;28H[?12l[?25h[?12;25h	[?25l#[?12l[?25h[?12;25h[?25ls[?12l[?25h[?12;25h[?25lt[?12l[?25h[?12;25h[?25lo[?12l[?25h[?12;25h[?25lr[?12l[?25h[?12;25h[?25le[?12l[?25h[?12;25h	[?25le[?12l[?25h[?12;25h[?25ld[?12l[?25h[?12;25h[?25lx[?12l[?25h[?12;25h[C[?25lc[?12l[?25h[?12;25h[?25lp[?12l[?25h[?12;25h[?25lu[?12l[?25h[?12;25h[?25li[?12l[?25h[?12;25h[?25ld[?12l[?25h[?12;25h[C[?25lr[?12l[?25h[?12;25h[?25le[?12l[?25h[?12;25h[?25ls[?12l[?25h[?12;25h[?25lu[?12l[?25h[?12;25h[?25ll[?12l[?25h[?12;25h[?25lt[?12l[?25h[?12;25h[38;35H[?25l[30m[48;5;250m7[39;49m[18;56H[?12l[?25h[?12;25h[38;35H[?25l[30m[48;5;250m6[39;49m[17;54H[?12l[?25h[?12;25h[38;35H[?25l[30m[48;5;250m5[39;49m[16;51H[?12l[?25h[?12;25h[C[?25l[1P[?12l[?25h[?12;25h[?25l[1@b[?12l[?25h[?12;25h[39;1H[?25lSaving file /home/epotapo1/i220a/submit/lab8/exercises/cpuid2/cpuid.s...[16;42H[?12l[?25h[?12;25h[39;1H[?25lWrote /home/epotapo1/i220a/submit/lab8/exercises/cpuid2/cpuid.s[K[16;42H[?12l[?25h[?12;25h[38;6H[?25l[30m[48;5;250m--[39;49m[16;42H[?12l[?25h[?12;25h[39;1H[K[16;42H[39;1H[K[?1004l[?2004l[?1l>[?12l[?25h[?1049l[23;0;0t[39;49mepotapo1@remote05:~/i220a/submit/lab8/exercises/cpuid2$ make
cc -c -g -Wall -std=c18 cpuid.s -o cpuid.o
cc main.o cpuid.o -o cpuid
epotapo1@remote05:~/i220a/submit/lab8/exercises/cpuid2$ ./cu[Kpuid 0
Segmentation fault
epotapo1@remote05:~/i220a/submit/lab8/exercises/cpuid2$ ./cpuid 0[5Pmakeemacs cpuid.s
[?1049h[22;0;0t[?12;25h[?1h=[H[2J[39d[K[?1l>[?12l[?25h[?1049l[23;0;0t[39;49m[?1049h[22;0;0t[?12;25h[?1h=[H[2J[38d[?25l[30m[47m-UUU:----F1  [39;49m[1m[30m[47m*scratch*   [0m[39;49m[30m[47m   All L1     (Fundamental) -------------------------------------------------------------------------------------------------[39;49m
[A[2d[?12l[?25h[?12;25h[39d[?25lLoading /etc/emacs/site-start.d/00debian.el (source)...done[K[H
[?12l[?25h[?12;25h[39;33H[?25l50a2ps.el (source)...[K[H
[?12l[?25h[?12;25h[39;54H[?25ldone[H
[?12l[?25h[?12;25h[39;36H[?25lsymptote.el (source)...[H
[?12l[?25h[?12;25h[39;59H[?25ldone[H
[?12l[?25h[?12;25h[39;36H[?25lutoconf.el (source)...[K[H
[?12l[?25h[?12;25h[39;58H[?25ldone[H
[?12l[?25h[?12;25h[39;35H[?25lcmake-data.el (source)...[K[H
[?12l[?25h[?12;25h[39;60H[?25ldone[H
[?12l[?25h[?12;25h[39;35H[?25ldevhelp.el (source)...[K[H
[?12l[?25h[?12;25h[39;57H[?25ldone[H
[?12l[?25h[?12;25h[39;36H[?25lictionaries-common.el (source)...[H
[?12l[?25h[?12;25h[39;9H[?25ldebian-ispell...[K[H
[?12l[?25h[?12;25h[39;9H[?25l/var/cache/dictionaries-common/emacsen-ispell-default.el (source)...[H
[?12l[?25h[?12;25h[39;77H[?25ldone[H
[?12l[?25h[?12;25h[39;9H[?25ldebian-ispell...done[K[H
[?12l[?25h[?12;25h[39;9H[?25l/var/cache/dictionaries-common/emacsen-ispell-dicts.el (source)...[H
[?12l[?25h[?12;25h[39;75H[?25ldone[H
[?12l[?25h[?12;25h[39;10H[?25letc/emacs/site-start.d/50dictionaries-common[6P[H
[?12l[?25h[?12;25h[39;35H[?25lerlang-mode.el (source)...[K[H
[?12l[?25h[?12;25h[39;61H[?25ldone[H
[?12l[?25h[?12;25h[39;35H[?25lhaskell-mode.el (source)...[K[H
[?12l[?25h[?12;25h[39;10H[?25lusr/share/emacs/site-lisp/elpa/haskel[34@l-mode-16.1/haskell-mode-autoloads[H
[?12l[?25h[?12;25h[39;96H[?25ldone[H
[?12l[?25h[?12;25h[39;10H[?25letc/emacs/site-start.d/50haskell-mode[34P[H
[?12l[?25h[?12;25h[39;35H[?25llatex-cjk-common.el (source)...[H
[?12l[?25h[?12;25h[39;10H[?25lusr/share/emacs/site-lisp/latex-cjk-commo[9@n/cjk-enc[H
[?12l[?25h[?12;25h[39;75H[?25ldone[H
[?12l[?25h[?12;25h[39;10H[?25letc/emacs/site-start.d/50latex-cjk-common[9P[H
[?12l[?25h[?12;25h[39;45H[?25lthai.el (source)...[K[H
[?12l[?25h[?12;25h[39;64H[?25ldone[H
[?12l[?25h[?12;25h[39;35H[?25lpsvn.el (source)...[K[H
[?12l[?25h[?12;25h[39;54H[?25ldone[H
[?12l[?25h[?12;25h[39;36H[?25lython-docutils.el (source)...[H
[?12l[?25h[?12;25h[39;65H[?25ldone[H
[?12l[?25h[?12;25h[39;35H[?25ltcsh.el (source)...[K[H
[?12l[?25h[?12;25h[39;54H[?25ldone[H
[?12l[?25h[?12;25h[39;36H[?25lexlive-lang-english.el (source)...[H
[?12l[?25h[?12;25h[39;70H[?25ldone[H
[?12l[?25h[?12;25h[>0c[?2004h[?1004h[39d[?25lFor information about GNU Emacs and the GNU system, type C-h C-a.[K[H
[?12l[?25h[?12;25h[39d[?25lFor information about GNU Emacs and the GNU system, type C-h C-a.[K[H[7mFile Edit Options Buffers Tools Asm Help                                                                                                              [0m[39;49m[27m
[A
#Currently get_cpuid(int *eax, int *ebx, int *ecx, int *edx).[K
#Modify to get_cpuid(int cpuid_op, int *eax, int *ebx, int *ecx, int *edx).[K
#                     op = rdi,   eax = rsi, ebx = rdx, ecx = rcx, edx = r8[K
        [38;5;129m.text[39;49m[K
        [38;5;129m.globl[39;49m get_cpuid[K
[38;5;21mget_cpuid[39;49m:[K
        [38;5;129mpushq[39;49m   [38;5;130m%rcx[39;49m[K
        [38;5;129mpushq[39;49m   [38;5;130m%rdx[39;49m[K
        [38;5;129mmovq[39;49m    [38;5;130m%rdi[39;49m, ([38;5;130m%eax[39;49m)    #setup cpuid opcode to incoming cpuid_op[K
        [38;5;129mcpuid[39;49m[K
        #largest param in [38;5;130m%eax[39;49m[K
        #12-char manufacturer string in ebx, edx, ecx.[K
        [38;5;129mmovl[39;49m    [38;5;130m%eax[39;49m, ([38;5;130m%rsi[39;49m)    #store eax cpuid result[K
        [38;5;129mpopq[39;49m    [38;5;130m%rax[39;49m            #pop address for ebxP[K
        [38;5;129mmovl[39;49m    [38;5;130m%ebx[39;49m, ([38;5;130m%rax[39;49m)    #store ebx cpuid result[K
        [38;5;129mpopq[39;49m    [38;5;130m%rax[39;49m            #pop address for ecxP[K
        [38;5;129mmovl[39;49m    [38;5;130m%ecx[39;49m, ([38;5;130m%rax[39;49m)    #store ecx cpuid result[K
        [38;5;129mmovl[39;49m    [38;5;130m%edx[39;49m, ([38;5;130m%r8[39;49m)     #store edx cpuid result[K
        [38;5;129mret[39;49m[K
[K
[K
[K
[K
[K
[K
[K
[K
[K
[K
[K
[K
[K
[K
[K
[K
[K
[30m[48;5;250m-UU-:----F1  [39;49m[1m[30m[48;5;250mcpuid.s     [0m[39;49m[30m[48;5;250m   All L1    Git:lab8  (Assembler) 12:16PM 1.55 -----------------------------------------------------------------------------[39;49m
[A[2d[?12l[?25h[?12;25h[38;65H[?25l[30m[48;5;250m7PM 1.66[39;49m[H
[?12l[?25h[?12;25h[38;65H[?25l[30m[48;5;250m8PM 1.81[39;49m[H
[?12l[?25h[?12;25h[39d[K[38;34H[?25l[30m[48;5;250m2[39;49m[H

[?12l[?25h[?12;25h[38;34H[?25l[30m[48;5;250m3[39;49m[4;1H[?12l[?25h[?12;25h[38;34H[?25l[30m[48;5;250m4[39;49m[5;1H[?12l[?25h[?12;25h[38;34H[?25l[30m[48;5;250m5[39;49m[6;1H[?12l[?25h[?12;25h[38;34H[?25l[30m[48;5;250m6[39;49m[7;1H[?12l[?25h[?12;25h[38;34H[?25l[30m[48;5;250m7[39;49m[8;1H[?12l[?25h[?12;25h[38;34H[?25l[30m[48;5;250m8[39;49m[9;1H[?12l[?25h[?12;25h	[C[38;34H[?25l[30m[48;5;250m9[39;49m[10;10H[?12l[?25h[?12;25h[C[C[C[C	[C[C[C[C[C[C	[?25l[38;5;130m%eax[39;49m) [38;6H[30m[48;5;250m**[39;49m[10;23H[?12l[?25h[?12;25h		[C[C[C[?25l [?12l[?25h[?12;25h[39;1H[?25lSaving file /home/epotapo1/i220a/submit/lab8/exercises/cpuid2/cpuid.s...[10;27H[?12l[?25h[?12;25h[39;1H[?25lWrote /home/epotapo1/i220a/submit/lab8/exercises/cpuid2/cpuid.s[K[10;27H[?12l[?25h[?12;25h[38;6H[?25l[30m[48;5;250m--[39;49m[10;27H[?12l[?25h[?12;25h[39;1H[K[10;27H[39;1H[K[?1004l[?2004l[?1l>[?12l[?25h[?1049l[23;0;0t[39;49mepotapo1@remote05:~/i220a/submit/lab8/exercises/cpuid2$ make
cc -c -g -Wall -std=c18 cpuid.s -o cpuid.o
cpuid.s: Assembler messages:
cpuid.s:9: Error: operand size mismatch for `movq'
make: *** [Makefile:11: cpuid.o] Error 1
epotapo1@remote05:~/i220a/submit/lab8/exercises/cpuid2$ makeemacs cpuid.s
[?1049h[22;0;0t[?12;25h[?1h=[H[2J[39d[K[?1l>[?12l[?25h[?1049l[23;0;0t[39;49m[?1049h[22;0;0t[?12;25h[?1h=[H[2J[38d[?25l[30m[47m-UUU:----F1  [39;49m[1m[30m[47m*scratch*   [0m[39;49m[30m[47m   All L1     (Fundamental) -------------------------------------------------------------------------------------------------[39;49m
[A[2d[?12l[?25h[?12;25h[39d[?25lLoading /etc/emacs/site-start.d/00debian.el (source)...done[K[H
[?12l[?25h[?12;25h[39;33H[?25l50a2ps.el (source)...[K[H
[?12l[?25h[?12;25h[39;54H[?25ldone[H
[?12l[?25h[?12;25h[39;36H[?25lsymptote.el (source)...[H
[?12l[?25h[?12;25h[39;59H[?25ldone[H
[?12l[?25h[?12;25h[39;36H[?25lutoconf.el (source)...[K[H
[?12l[?25h[?12;25h[39;58H[?25ldone[H
[?12l[?25h[?12;25h[39;35H[?25lcmake-data.el (source)...[K[H
[?12l[?25h[?12;25h[39;60H[?25ldone[H
[?12l[?25h[?12;25h[39;35H[?25ldevhelp.el (source)...[K[H
[?12l[?25h[?12;25h[39;57H[?25ldone[H
[?12l[?25h[?12;25h[39;36H[?25lictionaries-common.el (source)...[H
[?12l[?25h[?12;25h[39;9H[?25ldebian-ispell...[K[H
[?12l[?25h[?12;25h[39;9H[?25l/var/cache/dictionaries-common/emacsen-ispell-default.el (source)...[H
[?12l[?25h[?12;25h[39;77H[?25ldone[H
[?12l[?25h[?12;25h[39;9H[?25ldebian-ispell...done[K[H
[?12l[?25h[?12;25h[39;9H[?25l/var/cache/dictionaries-common/emacsen-ispell-dicts.el (source)...[H
[?12l[?25h[?12;25h[39;75H[?25ldone[H
[?12l[?25h[?12;25h[39;10H[?25letc/emacs/site-start.d/50dictionaries-common[6P[H
[?12l[?25h[?12;25h[39;35H[?25lerlang-mode.el (source)...[K[H
[?12l[?25h[?12;25h[39;61H[?25ldone[H
[?12l[?25h[?12;25h[39;35H[?25lhaskell-mode.el (source)...[K[H
[?12l[?25h[?12;25h[39;10H[?25lusr/share/emacs/site-lisp/elpa/haskel[34@l-mode-16.1/haskell-mode-autoloads[H
[?12l[?25h[?12;25h[39;96H[?25ldone[H
[?12l[?25h[?12;25h[39;10H[?25letc/emacs/site-start.d/50haskell-mode[34P[H
[?12l[?25h[?12;25h[39;35H[?25llatex-cjk-common.el (source)...[H
[?12l[?25h[?12;25h[39;10H[?25lusr/share/emacs/site-lisp/latex-cjk-commo[9@n/cjk-enc[H
[?12l[?25h[?12;25h[39;75H[?25ldone[H
[?12l[?25h[?12;25h[39;10H[?25letc/emacs/site-start.d/50latex-cjk-common[9P[H
[?12l[?25h[?12;25h[39;45H[?25lthai.el (source)...[K[H
[?12l[?25h[?12;25h[39;64H[?25ldone[H
[?12l[?25h[?12;25h[39;35H[?25lpsvn.el (source)...[K[H
[?12l[?25h[?12;25h[39;54H[?25ldone[H
[?12l[?25h[?12;25h[39;36H[?25lython-docutils.el (source)...[H
[?12l[?25h[?12;25h[39;65H[?25ldone[H
[?12l[?25h[?12;25h[39;35H[?25ltcsh.el (source)...[K[H
[?12l[?25h[?12;25h[39;54H[?25ldone[H
[?12l[?25h[?12;25h[39;36H[?25lexlive-lang-english.el (source)...[H
[?12l[?25h[?12;25h[39;70H[?25ldone[H
[?12l[?25h[?12;25h[>0c[?2004h[?1004h[39d[?25lFor information about GNU Emacs and the GNU system, type C-h C-a.[K[H
[?12l[?25h[?12;25h[39d[?25lFor information about GNU Emacs and the GNU system, type C-h C-a.[K[H[7mFile Edit Options Buffers Tools Asm Help                                                                                                              [0m[39;49m[27m
[A
#Currently get_cpuid(int *eax, int *ebx, int *ecx, int *edx).[K
#Modify to get_cpuid(int cpuid_op, int *eax, int *ebx, int *ecx, int *edx).[K
#                     op = rdi,   eax = rsi, ebx = rdx, ecx = rcx, edx = r8[K
        [38;5;129m.text[39;49m[K
        [38;5;129m.globl[39;49m get_cpuid[K
[38;5;21mget_cpuid[39;49m:[K
        [38;5;129mpushq[39;49m   [38;5;130m%rcx[39;49m[K
        [38;5;129mpushq[39;49m   [38;5;130m%rdx[39;49m[K
        [38;5;129mmovq[39;49m    [38;5;130m%rdi[39;49m, [38;5;130m%eax[39;49m      #setup cpuid opcode to incoming cpuid_op[K
        [38;5;129mcpuid[39;49m[K
        #largest param in [38;5;130m%eax[39;49m[K
        #12-char manufacturer string in ebx, edx, ecx.[K
        [38;5;129mmovl[39;49m    [38;5;130m%eax[39;49m, ([38;5;130m%rsi[39;49m)    #store eax cpuid result[K
        [38;5;129mpopq[39;49m    [38;5;130m%rax[39;49m            #pop address for ebxP[K
        [38;5;129mmovl[39;49m    [38;5;130m%ebx[39;49m, ([38;5;130m%rax[39;49m)    #store ebx cpuid result[K
        [38;5;129mpopq[39;49m    [38;5;130m%rax[39;49m            #pop address for ecxP[K
        [38;5;129mmovl[39;49m    [38;5;130m%ecx[39;49m, ([38;5;130m%rax[39;49m)    #store ecx cpuid result[K
        [38;5;129mmovl[39;49m    [38;5;130m%edx[39;49m, ([38;5;130m%r8[39;49m)     #store edx cpuid result[K
        [38;5;129mret[39;49m[K
[K
[K
[K
[K
[K
[K
[K
[K
[K
[K
[K
[K
[K
[K
[K
[K
[K
[30m[48;5;250m-UU-:----F1  [39;49m[1m[30m[48;5;250mcpuid.s     [0m[39;49m[30m[48;5;250m   All L1    Git:lab8  (Assembler) 12:18PM 1.37 -----------------------------------------------------------------------------[39;49m
[A[2d[?12l[?25h[?12;25h[39d[K[38;34H[?25l[30m[48;5;250m2[39;49m[H

[?12l[?25h[?12;25h[38;34H[?25l[30m[48;5;250m3[39;49m[4;1H[?12l[?25h[?12;25h[38;34H[?25l[30m[48;5;250m4[39;49m[5;1H[?12l[?25h[?12;25h[38;34H[?25l[30m[48;5;250m5[39;49m[6;1H[?12l[?25h[?12;25h[38;34H[?25l[30m[48;5;250m6[39;49m[7;1H[?12l[?25h[?12;25h[38;34H[?25l[30m[48;5;250m7[39;49m[8;1H[?12l[?25h[?12;25h[38;34H[?25l[30m[48;5;250m8[39;49m[9;1H[?12l[?25h[?12;25h[38;34H[?25l[30m[48;5;250m9[39;49m[10;1H[?12l[?25h[?12;25h	[C[C[C[C[C	[C[C[?25l[38;5;130mdi[39;49m, [38;5;130m%eax[39;49m [38;6H[30m[48;5;250m**[39;49m[10;18H[?12l[?25h[?12;25h[?25l[38;5;130medi[39;49m, [38;5;130m%eax[39;49m[10;19H[?12l[?25h[?12;25h[?25l [?12l[?25h[?12;25h[?25l[38;5;129ml[39;49m[?12l[?25h[?12;25h[39;1H[?25lSaving file /home/epotapo1/i220a/submit/lab8/exercises/cpuid2/cpuid.s...[10;13H[?12l[?25h[?12;25h[39;1H[?25lWrote /home/epotapo1/i220a/submit/lab8/exercises/cpuid2/cpuid.s[K[10;13H[?12l[?25h[?12;25h[38;6H[?25l[30m[48;5;250m--[39;49m[10;13H[?12l[?25h[?12;25h[39;1H[K[10;13H[39;1H[K[?1004l[?2004l[?1l>[?12l[?25h[?1049l[23;0;0t[39;49mepotapo1@remote05:~/i220a/submit/lab8/exercises/cpuid2$ emacs cpuid.smake[K
cc -c -g -Wall -std=c18 cpuid.s -o cpuid.o
cc main.o cpuid.o -o cpuid
epotapo1@remote05:~/i220a/submit/lab8/exercises/cpuid2$ ./cpuid 0
cpuid(0): eax = 0x14; ebx = 0x756e6547; edx = 0x49656e69; ecx = 0x6c65746e
vendor: GenuineIntel
epotapo1@remote05:~/i220a/submit/lab8/exercises/cpuid2$ ./cpuid 1
cpuid(1): eax = 0x406f1; ebx = 0x4040800; edx = 0x1f8bfbff; ecx = 0xfffa3223
epotapo1@remote05:~/i220a/submit/lab8/exercises/cpuid2$ ./cpuid 1[K3
cpuid(3): eax = 0x0; ebx = 0x0; edx = 0x0; ecx = 0x0
epotapo1@remote05:~/i220a/submit/lab8/exercises/cpuid2$ ./cpuid 32[K[K2
cpuid(2): eax = 0x76036301; ebx = 0xf0b5ff; edx = 0xc30000; ecx = 0x0
epotapo1@remote05:~/i220a/submit/lab8/exercises/cpuid2$ ../[K[K[Kcd ../parity/
epotapo1@remote05:~/i220a/submit/lab8/exercises/parity$ ls
main.c	Makefile  parity.s
epotapo1@remote05:~/i220a/submit/lab8/exercises/parity$ emacs parity.s 
[?1049h[22;0;0t[?12;25h[?1h=[H[2J[39d[K[?1l>[?12l[?25h[?1049l[23;0;0t[39;49m[?1049h[22;0;0t[?12;25h[?1h=[H[2J[38d[?25l[30m[47m-UUU:----F1  [39;49m[1m[30m[47m*scratch*   [0m[39;49m[30m[47m   All L1     (Fundamental) -------------------------------------------------------------------------------------------------[39;49m
[A[2d[?12l[?25h[?12;25h[39d[?25lLoading /etc/emacs/site-start.d/00debian.el (source)...done[K[H
[?12l[?25h[?12;25h[39;33H[?25l50a2ps.el (source)...[K[H
[?12l[?25h[?12;25h[39;54H[?25ldone[H
[?12l[?25h[?12;25h[39;36H[?25lsymptote.el (source)...[H
[?12l[?25h[?12;25h[39;59H[?25ldone[H
[?12l[?25h[?12;25h[39;36H[?25lutoconf.el (source)...[K[H
[?12l[?25h[?12;25h[39;58H[?25ldone[H
[?12l[?25h[?12;25h[39;35H[?25lcmake-data.el (source)...[K[H
[?12l[?25h[?12;25h[39;60H[?25ldone[H
[?12l[?25h[?12;25h[39;35H[?25ldevhelp.el (source)...[K[H
[?12l[?25h[?12;25h[39;57H[?25ldone[H
[?12l[?25h[?12;25h[39;36H[?25lictionaries-common.el (source)...[H
[?12l[?25h[?12;25h[39;9H[?25ldebian-ispell...[K[H
[?12l[?25h[?12;25h[39;9H[?25l/var/cache/dictionaries-common/emacsen-ispell-default.el (source)...[H
[?12l[?25h[?12;25h[39;77H[?25ldone[H
[?12l[?25h[?12;25h[39;9H[?25ldebian-ispell...done[K[H
[?12l[?25h[?12;25h[39;9H[?25l/var/cache/dictionaries-common/emacsen-ispell-dicts.el (source)...[H
[?12l[?25h[?12;25h[39;75H[?25ldone[H
[?12l[?25h[?12;25h[39;10H[?25letc/emacs/site-start.d/50dictionaries-common[6P[H
[?12l[?25h[?12;25h[39;35H[?25lerlang-mode.el (source)...[K[H
[?12l[?25h[?12;25h[39;61H[?25ldone[H
[?12l[?25h[?12;25h[39;35H[?25lhaskell-mode.el (source)...[K[H
[?12l[?25h[?12;25h[39;10H[?25lusr/share/emacs/site-lisp/elpa/haskel[34@l-mode-16.1/haskell-mode-autoloads[H
[?12l[?25h[?12;25h[39;96H[?25ldone[H
[?12l[?25h[?12;25h[39;10H[?25letc/emacs/site-start.d/50haskell-mode[34P[H
[?12l[?25h[?12;25h[39;35H[?25llatex-cjk-common.el (source)...[H
[?12l[?25h[?12;25h[39;10H[?25lusr/share/emacs/site-lisp/latex-cjk-commo[9@n/cjk-enc[H
[?12l[?25h[?12;25h[39;75H[?25ldone[H
[?12l[?25h[?12;25h[39;10H[?25letc/emacs/site-start.d/50latex-cjk-common[9P[H
[?12l[?25h[?12;25h[39;45H[?25lthai.el (source)...[K[H
[?12l[?25h[?12;25h[39;64H[?25ldone[H
[?12l[?25h[?12;25h[39;35H[?25lpsvn.el (source)...[K[H
[?12l[?25h[?12;25h[39;54H[?25ldone[H
[?12l[?25h[?12;25h[39;36H[?25lython-docutils.el (source)...[H
[?12l[?25h[?12;25h[39;65H[?25ldone[H
[?12l[?25h[?12;25h[39;35H[?25ltcsh.el (source)...[K[H
[?12l[?25h[?12;25h[39;54H[?25ldone[H
[?12l[?25h[?12;25h[39;36H[?25lexlive-lang-english.el (source)...[H
[?12l[?25h[?12;25h[39;70H[?25ldone[H
[?12l[?25h[?12;25h[>0c[?2004h[?1004h[39d[?25lFor information about GNU Emacs and the GNU system, type C-h C-a.[K[H
[?12l[?25h[?12;25h[39d[?25lFor information about GNU Emacs and the GNU system, type C-h C-a.[K[H[7mFile Edit Options Buffers Tools Asm Help                                                                                                              [0m[39;49m[27m
[A
        [38;5;129m.text[39;49m[K
        [38;5;129m.globl[39;49m get_parity[K
#edi contains n[K
[38;5;21mget_parity[39;49m:[K
[K
        #@TODO: add code here to set eax to 1 iff edi has even parity[K
        [38;5;129mret[39;49m[K
[K
[K
[K
[K
[K
[K
[K
[K
[K
[K
[K
[K
[K
[K
[K
[K
[K
[K
[K
[K
[K
[K
[K
[K
[K
[K
[K
[K
[K
[30m[48;5;250m-UU-:----F1  [39;49m[1m[30m[48;5;250mparity.s    [0m[39;49m[30m[48;5;250m   All L1    Git-lab8  (Assembler) 12:23PM 0.80 -----------------------------------------------------------------------------[39;49m
[A[2d[?12l[?25h[?12;25h[39d[K[38;34H[?25l[30m[48;5;250m2[39;49m[H

[?12l[?25h[?12;25h[38;34H[?25l[30m[48;5;250m3[39;49m[4;1H[?12l[?25h[?12;25h[38;34H[?25l[30m[48;5;250m4[39;49m[5;1H[?12l[?25h[?12;25h[38;34H[?25l[30m[48;5;250m5[39;49m[6;1H[?12l[?25h[?12;25h[38;6H[?25l[30m[48;5;250m**[39;49m[6;9H[?12l[?25h[?12;25h[38;65H[?25l[30m[48;5;250m4PM 0.81[39;49m[6;9H[?12l[?25h[?12;25h[?25l[38;5;129mt[39;49m[?12l[?25h[?12;25h[?25l[38;5;129ms[39;49m[?12l[?25h[?12;25h[K[?25l[38;5;129me[39;49m[?12l[?25h[?12;25h[?25l[38;5;129ms[39;49m[?12l[?25h[?12;25h[?25l[38;5;129mt[39;49m[?12l[?25h[?12;25h[?25l[38;5;129ml[39;49m[?12l[?25h[?12;25h[C[?25le[?12l[?25h[?12;25h[K[C[?25l%[?12l[?25h[?12;25h[?25l[38;5;130m%e[39;49m[?12l[?25h[?12;25h[?25l[38;5;130md[39;49m[?12l[?25h[?12;25h[?25l[38;5;130mi[39;49m[?12l[?25h[?12;25h[K[K[?25l%[K[?12l[?25h[?12;25h[K[C[C[?25l%[?12l[?25h[?12;25h[?25l[38;5;130m%e[39;49m[?12l[?25h[?12;25h[?25l[38;5;130md[39;49m[?12l[?25h[?12;25h[?25l[38;5;130mi[39;49m[?12l[?25h[?12;25h[1;37r[8;1H[1L[1;39r[7;1H[K
[?25l        #@TODO: add code here to set eax to 1 iff edi has even parity[K[38;34H[30m[48;5;250m6[39;49m[7;9H[?12l[?25h[?12;25h[38;65H[?25l[30m[48;5;250m5PM 1.25[39;49m[7;9H[?12l[?25h[?12;25h[39;1H[?25lAuto-saving...[7;9H[?12l[?25h[?12;25h[39;15H[?25ldone[7;9H[?12l[?25h[?12;25h[38;65H[?25l[30m[48;5;250m6PM 0.66[39;49m[7;9H[?12l[?25h[?12;25h[39;1H[K[7;9H[38;65H[?25l[30m[48;5;250m7PM 1.13[39;49m[7;9H[?12l[?25h[?12;25h[38;34H[?25l[30m[48;5;250m7[39;49m[8;9H[?12l[?25h[?12;25h[38;34H[?25l[30m[48;5;250m8[39;49m[9;9H[?12l[?25h[?12;25h[38;34H[?25l[30m[48;5;250m9[39;49m[10;9H[?12l[?25h[?12;25h[38;34H[?25l[30m[48;5;250m10[39;49m[11;1H[?12l[?25h[?12;25h[?25l.[?12l[?25h[?12;25h[?25l[38;5;129m.O[39;49m[?12l[?25h[?12;25h[?25l[38;5;129mD[39;49m[?12l[?25h[?12;25h[?25l[38;5;129mD[39;49m[?12l[?25h[?12;25h[?25l[38;5;21m.ODD[39;49m:[?12l[?25h[?12;25h[?25l        [38;5;129m.ODD[39;49m:[38;35H[30m[48;5;250m1[39;49m[12;9H[?12l[?25h[?12;25h[38;35H[?25l[30m[48;5;250m0[39;49m[11;14H[?12l[?25h[?12;25h[38;65H[?25l[30m[48;5;250m8PM 0.84[39;49m[11;14H[?12l[?25h[?12;25h[?25l[38;5;21m.ODD[39;49m:[K[?12l[?25h[?12;25h[39d[?25lEnd of buffer[11;6H[?12l[?25h[?12;25h[39;1H[K[11d[?25l        [38;5;129m.ODD[39;49m:[38;35H[30m[48;5;250m1[39;49m[12;9H[?12l[?25h[?12;25h[?25l[38;5;129ml[39;49m[?12l[?25h[?12;25h[?25l[38;5;129ma[39;49m[?12l[?25h[?12;25h[?25l[38;5;129ms[39;49m[?12l[?25h[?12;25h[?25l[38;5;129md[39;49m[?12l[?25h[?12;25h[38;35H[?25l[30m[48;5;250m0[39;49m[11;13H[?12l[?25h[?12;25h[?25l[38;5;21m.ODD[39;49m:[K[?12l[?25h[?12;25h[C[38;35H[?25l[30m[48;5;250m1[39;49m[12;1H[?12l[?25h[?12;25h	[C[C[C[C[K[K[K[K	[?25l[38;5;129mm[39;49m[?12l[?25h[?12;25h[?25l[38;5;129mo[39;49m[?12l[?25h[?12;25h[?25l[38;5;129mv[39;49m[?12l[?25h[?12;25h[C[?25l[38;5;129ml[39;49m[?12l[?25h[?12;25h[C[?25lp[?12l[?25h[?12;25h[?25lf[?12l[?25h[?12;25h[?25l,[?12l[?25h[?12;25h[C[?25l%[?12l[?25h[?12;25h[?25l[38;5;130m%e[39;49m[?12l[?25h[?12;25h[?25l[38;5;130ma[39;49m[?12l[?25h[?12;25h[?25l[38;5;130mx[39;49m[?12l[?25h[?12;25h[38;65H[?25l[30m[48;5;250m9PM 0.43[39;49m[12;22H[?12l[?25h[?12;25h[38;35H[?25l[30m[48;5;250m0[39;49m[11;6H[?12l[?25h[?12;25h[38;34H[?25l[30m[48;5;250m9 [39;49m[10;9H[?12l[?25h[?12;25h[38;34H[?25l[30m[48;5;250m8[39;49m[9;12H[?12l[?25h[?12;25h[38;34H[?25l[30m[48;5;250m7[39;49m[8;22H[?12l[?25h[?12;25h[38;34H[?25l[30m[48;5;250m6[39;49m[7;9H[?12l[?25h[?12;25h[38;34H[?25l[30m[48;5;250m5[39;49m[6;19H[?12l[?25h[?12;25h[?25l,[?12l[?25h[?12;25h[C[?25l%[?12l[?25h[?12;25h[?25l[38;5;130m%e[39;49m[?12l[?25h[?12;25h[?25l[38;5;130md[39;49m[?12l[?25h[?12;25h[?25l[38;5;130mi[39;49m[?12l[?25h[?12;25h[38;34H[?25l[30m[48;5;250m6[39;49m[7;9H[?12l[?25h[?12;25h[38;34H[?25l[30m[48;5;250m7[39;49m[8;25H[?12l[?25h[?12;25h[38;34H[?25l[30m[48;5;250m6[39;49m[7;9H[?12l[?25h[?12;25h[38;64H[?25l[30m[48;5;250m30PM 0.52[39;49m[7;9H[?12l[?25h[?12;25h[38;34H[?25l[30m[48;5;250m7[39;49m[8;25H[?12l[?25h[?12;25h[38;34H[?25l[30m[48;5;250m8[39;49m[9;12H[?12l[?25h[?12;25h[38;34H[?25l[30m[48;5;250m9[39;49m[10;9H[?12l[?25h[?12;25h[38;34H[?25l[30m[48;5;250m10[39;49m[11;1H[?12l[?25h[?12;25h[38;34H[?25l[30m[48;5;250m9 [39;49m[10;9H[?12l[?25h[?12;25h[38;34H[?25l[30m[48;5;250m10[39;49m[11;6H[?12l[?25h[?12;25h[?25l:[K[?12l[?25h[?12;25h[?25l:[K[?12l[?25h[?12;25h[?25l.:[K[?12l[?25h[?12;25h[?25l[38;5;21m.E[39;49m:[?12l[?25h[?12;25h[?25l[38;5;21mV[39;49m:[?12l[?25h[?12;25h[?25l[38;5;21mE[39;49m:[?12l[?25h[?12;25h[?25l[38;5;21mN[39;49m:[?12l[?25h[?12;25h[38;34H[?25l[30m[48;5;250m9 [39;49m[10;1H[?12l[?25h[?12;25h[38;34H[?25l[30m[48;5;250m8[39;49m[9;1H[?12l[?25h[?12;25h[38;34H[?25l[30m[48;5;250m7[39;49m[8;1H[?12l[?25h[?12;25h	[38;34H[?25l[30m[48;5;250m6[39;49m[7;9H[?12l[?25h[?12;25h[?25l[38;5;129mj[39;49m[?12l[?25h[?12;25h[?25l[38;5;129mp[39;49m[?12l[?25h[?12;25h[?25l[38;5;129me[39;49m[?12l[?25h[?12;25h[C[38;65H[?25l[30m[48;5;250m1PM 0.79[39;49m[7;13H[?12l[?25h[?12;25h[38;34H[?25l[30m[48;5;250m7[39;49m[8;13H[?12l[?25h[?12;25h[38;34H[?25l[30m[48;5;250m8[39;49m[9;12H[?12l[?25h[?12;25h[38;34H[?25l[30m[48;5;250m9[39;49m[10;9H[?12l[?25h[?12;25h[38;34H[?25l[30m[48;5;250m10[39;49m[11;7H[?12l[?25h[?12;25h[38;35H[?25l[30m[48;5;250m1[39;49m[12;13H[?12l[?25h[?12;25h[C[C[38;35H[?25l[30m[48;5;250m0[39;49m[11;7H[?12l[?25h[?12;25h[38;34H[?25l[30m[48;5;250m9 [39;49m[10;9H[?12l[?25h[?12;25h[38;34H[?25l[30m[48;5;250m8[39;49m[9;12H[?12l[?25h[?12;25h[38;34H[?25l[30m[48;5;250m7[39;49m[8;15H[?12l[?25h[?12;25h[38;34H[?25l[30m[48;5;250m6[39;49m[7;13H[?12l[?25h[?12;25h[?25l.[?12l[?25h[?12;25h[?25lE[?12l[?25h[?12;25h[?25lV[?12l[?25h[?12;25h[?25lE[?12l[?25h[?12;25h[?25lN[?12l[?25h[?12;25h[38;34H[?25l[30m[48;5;250m7[39;49m[8;18H[?12l[?25h[?12;25h[38;34H[?25l[30m[48;5;250m8[39;49m[9;12H[?12l[?25h[?12;25h[38;34H[?25l[30m[48;5;250m9[39;49m[10;9H[?12l[?25h[?12;25h[38;34H[?25l[30m[48;5;250m10[39;49m[11;7H[?12l[?25h[?12;25h[38;35H[?25l[30m[48;5;250m1[39;49m[12;18H[?12l[?25h[?12;25h	[39;1H[?25lAuto-saving...[12;17H[?12l[?25h[?12;25h[39;15H[?25ldone[12;17H[?12l[?25h[?12;25h[39;1H[K[12;18H[C[?25l, [38;5;130m%eax[39;49m[K[?12l[?25h[?12;25h[?25l, [38;5;130m%eax[39;49m[K[?12l[?25h[?12;25h[C[C[?25l0, [38;5;130m%eax[39;49m[?12l[?25h[?12;25h[?25lx, [38;5;130m%eax[39;49m		[?12l[?25h[?12;25h[?25l1, [38;5;130m%eax[39;49m		[?12l[?25h[?12;25h[38;65H[?25l[30m[48;5;250m2PM 0.6[39;49m[12;14H[?12l[?25h[?12;25h[?25l[1@$[?12l[?25h[?12;25h		[C[C[C[C[C[C	[38;35H[?25l[30m[48;5;250m2[39;49m[13;9H[?12l[?25h[?12;25h[?25l[38;5;129mr[39;49m[?12l[?25h[?12;25h[?25l[38;5;129me[39;49m[?12l[?25h[?12;25h[?25l[38;5;129mt[39;49m[?12l[?25h[?12;25h[38;35H[?25l[30m[48;5;250m1[39;49m[12;12H[?12l[?25h[?12;25h[38;35H[?25l[30m[48;5;250m0[39;49m[11;7H[?12l[?25h[?12;25h[38;34H[?25l[30m[48;5;250m9 [39;49m[10;9H[?12l[?25h[?12;25h[38;34H[?25l[30m[48;5;250m8[39;49m[9;12H[?12l[?25h[?12;25h[38;34H[?25l[30m[48;5;250m7[39;49m[8;12H[?12l[?25h[?12;25h[38;34H[?25l[30m[48;5;250m8[39;49m[9;12H[?12l[?25h[?12;25h[K
	[?25l[38;5;129mret[39;49m
[K
[38;5;21m.EVEN[39;49m:[K
	[38;5;129mmovl[39;49m $0x1, [38;5;130m%eax[39;49m
	[38;5;129mret[39;49m[38;34H[30m[48;5;250m9[39;49m[10;9H[?12l[?25h[?12;25h[38;34H[?25l[30m[48;5;250m8[39;49m[9;1H[?12l[?25h[?12;25h	[?25l[38;5;129mm[39;49m[?12l[?25h[?12;25h[?25l[38;5;129mo[39;49m[?12l[?25h[?12;25h[?25l[38;5;129mv[39;49m[?12l[?25h[?12;25h[?25l[38;5;129ml[39;49m[?12l[?25h[?12;25h[C[?25l$[?12l[?25h[?12;25h[?25l0[?12l[?25h[?12;25h[?25lx[?12l[?25h[?12;25h[?25l1[?12l[?25h[?12;25h[?25l,[?12l[?25h[?12;25h[C[?25l%[?12l[?25h[?12;25h[?25l[38;5;130m%e[39;49m[?12l[?25h[?12;25h[?25l[38;5;130mx[39;49m[?12l[?25h[?12;25h[K[?25l[38;5;130ma[39;49m[?12l[?25h[?12;25h[?25l[38;5;130mx[39;49m[?12l[?25h[?12;25h[38;34H[?25l[30m[48;5;250m7[39;49m[8;24H[?12l[?25h[?12;25h[38;34H[?25l[30m[48;5;250m6[39;49m[7;18H[?12l[?25h[?12;25h[38;34H[?25l[30m[48;5;250m7[39;49m[8;24H[?12l[?25h[?12;25h	[C[C[C[C[C[C		[C[C[C[C[C[C		[C[C[C[C[C[C		[C[C[C[C[C[C		[C[C[C[C[C[C		[C[C[C[C[C[38;34H[?25l[30m[48;5;250m8[39;49m[9;1H[?12l[?25h[?12;25h[38;34H[?25l[30m[48;5;250m7[39;49m[8;70H[?12l[?25h[?12;25h[K[K[K[K[K[K	[K[K[K[K[C[K[K[39;1H[?25lAuto-saving...[8;56H[?12l[?25h[?12;25h[39;15H[?25ldone[8;56H[?12l[?25h[?12;25h[39;1H[K[8;54H[K[C[K[K[K[C[K[K[K[C[K[C[K[K[C[K[K[K[C[K[K[K[C[K[K[C[K[K[K[K[C[K[K[K[K[C[K[K[K	[K[K[K[K[K[K[K	[1;37r[9;1H[1M[1;39r[8;9H[?25l[38;5;129mmovl[39;49m $0x1, [38;5;130m%eax[39;49m[37;1H[K[38;34H[30m[48;5;250m6[39;49m[7;18H[?12l[?25h[?12;25h[38;34H[?25l[30m[48;5;250m5[39;49m[6;18H[?12l[?25h[?12;25h[C[C[C[C[C			[?25l#[?12l[?25h[?12;25h[C[?25ls[?12l[?25h[?12;25h[?25le[?12l[?25h[?12;25h[?25lt[?12l[?25h[?12;25h[C[?25lp[?12l[?25h[?12;25h[?25la[?12l[?25h[?12;25h[?25lr[?12l[?25h[?12;25h[?25li[?12l[?25h[?12;25h[?25lt[?12l[?25h[?12;25h[?25ly[?12l[?25h[?12;25h[C[?25lf[?12l[?25h[?12;25h[?25ll[?12l[?25h[?12;25h[?25la[?12l[?25h[?12;25h[?25lg[?12l[?25h[?12;25h[C[?25lt[?12l[?25h[?12;25h[?25lo[?12l[?25h[?12;25h[C[?25l1[?12l[?25h[?12;25h	[?25li[?12l[?25h[?12;25h[?25lf[?12l[?25h[?12;25h[C[?25ln[?12l[?25h[?12;25h[C[?25li[?12l[?25h[?12;25h[?25ls[?12l[?25h[?12;25h	[?25le[?12l[?25h[?12;25h[?25lv[?12l[?25h[?12;25h[?25le[?12l[?25h[?12;25h[?25ln[?12l[?25h[?12;25h[38;34H[?25l[30m[48;5;250m6[39;49m[7;18H[?12l[?25h[?12;25h		[?25l#[?12l[?25h[?12;25h[C[?25lj[?12l[?25h[?12;25h[?25lu[?12l[?25h[?12;25h[?25lm[?12l[?25h[?12;25h[?25lp[?12l[?25h[?12;25h	[?25li[?12l[?25h[?12;25h[?25ls[?12l[?25h[?12;25h[C[K[?25lf[?12l[?25h[?12;25h[C[?25lp[?12l[?25h[?12;25h[?25la[?12l[?25h[?12;25h[?25lr[?12l[?25h[?12;25h[?25li[?12l[?25h[?12;25h[?25lt[?12l[?25h[?12;25h[?25ly[?12l[?25h[?12;25h[C[?25lf[?12l[?25h[?12;25h[?25ll[?12l[?25h[?12;25h[?25la[?12l[?25h[?12;25h[?25lg[?12l[?25h[?12;25h[C[?25li[?12l[?25h[?12;25h[?25ls[?12l[?25h[?12;25h[C[?25ls[?12l[?25h[?12;25h[?25le[?12l[?25h[?12;25h[?25lt[?12l[?25h[?12;25h[39;1H[?25lSaving file /home/epotapo1/i220a/submit/lab8/exercises/parity/parity.s...[7;61H[?12l[?25h[?12;25h[39;1H[?25lWrote /home/epotapo1/i220a/submit/lab8/exercises/parity/parity.s[K[7;61H[?12l[?25h[?12;25h[38;6H[?25l[30m[48;5;250m----F1  [39;49m[1m[30m[48;5;250mparity.s    [0m[39;49m[30m[48;5;250m   All L6    Git:[39;49m[7;61H[?12l[?25h[?12;25h[38;65H[?25l[30m[48;5;250m3PM 0.40[39;49m[7;61H[?12l[?25h[?12;25h[39;1H[K[38;34H[?25l[30m[48;5;250m7[39;49m[8;24H[?12l[?25h[?12;25h[?25l, [38;5;130m%eax[39;49m[K[38;6H[30m[48;5;250m**[39;49m[8;17H[?12l[?25h[?12;25h[?25l0, [38;5;130m%eax[39;49m[?12l[?25h[?12;25h[39;1H[?25lSaving file /home/epotapo1/i220a/submit/lab8/exercises/parity/parity.s...[8;18H[?12l[?25h[?12;25h[39;1H[?25lWrote /home/epotapo1/i220a/submit/lab8/exercises/parity/parity.s[K[8;18H[?12l[?25h[?12;25h[38;6H[?25l[30m[48;5;250m--[39;49m[8;18H[?12l[?25h[?12;25h[39;1H[K[8;18H[39;1H[K[?1004l[?2004l[?1l>[?12l[?25h[?1049l[23;0;0t[39;49mepotapo1@remote05:~/i220a/submit/lab8/exercises/parity$ mk[Kake
cc -g -Wall -std=c18 -Og   -c -o main.o main.c
cc -c -g -Wall -std=c18 -Og parity.s -o parity.o
cc main.o parity.o -o parity
epotapo1@remote05:~/i220a/submit/lab8/exercises/parity$ ./parity -1 0 -2
parity(-1) = 1
parity(0) = 1
parity(-2) = 0
epotapo1@remote05:~/i220a/submit/lab8/exercises/parity$ ./parity 1 2 3 4 5 6 7 15 21
parity(1) = 0
parity(2) = 0
parity(3) = 1
parity(4) = 0
parity(5) = 1
parity(6) = 1
parity(7) = 0
parity(15) = 1
parity(21) = 0
epotapo1@remote05:~/i220a/submit/lab8/exercises/parity$ ../[K[K[Kcd ../rip/
epotapo1@remote05:~/i220a/submit/lab8/exercises/rip$ ls
Makefile  rip.c
epotapo1@remote05:~/i220a/submit/lab8/exercises/rip$ emacs rip.c
[?1049h[22;0;0t[?12;25h[?1h=[H[2J[39d[K[?1l>[?12l[?25h[?1049l[23;0;0t[39;49m[?1049h[22;0;0t[?12;25h[?1h=[H[2J[38d[?25l[30m[47m-UUU:----F1  [39;49m[1m[30m[47m*scratch*   [0m[39;49m[30m[47m   All L1     (Fundamental) -------------------------------------------------------------------------------------------------[39;49m
[A[2d[?12l[?25h[?12;25h[39d[?25lLoading /etc/emacs/site-start.d/00debian.el (source)...done[K[H
[?12l[?25h[?12;25h[39;33H[?25l50a2ps.el (source)...[K[H
[?12l[?25h[?12;25h[39;54H[?25ldone[H
[?12l[?25h[?12;25h[39;36H[?25lsymptote.el (source)...[H
[?12l[?25h[?12;25h[39;59H[?25ldone[H
[?12l[?25h[?12;25h[39;36H[?25lutoconf.el (source)...[K[H
[?12l[?25h[?12;25h[39;58H[?25ldone[H
[?12l[?25h[?12;25h[39;35H[?25lcmake-data.el (source)...[K[H
[?12l[?25h[?12;25h[39;60H[?25ldone[H
[?12l[?25h[?12;25h[39;35H[?25ldevhelp.el (source)...[K[H
[?12l[?25h[?12;25h[39;57H[?25ldone[H
[?12l[?25h[?12;25h[39;36H[?25lictionaries-common.el (source)...[H
[?12l[?25h[?12;25h[39;9H[?25ldebian-ispell...[K[H
[?12l[?25h[?12;25h[39;9H[?25l/var/cache/dictionaries-common/emacsen-ispell-default.el (source)...[H
[?12l[?25h[?12;25h[39;77H[?25ldone[H
[?12l[?25h[?12;25h[39;9H[?25ldebian-ispell...done[K[H
[?12l[?25h[?12;25h[39;9H[?25l/var/cache/dictionaries-common/emacsen-ispell-dicts.el (source)...[H
[?12l[?25h[?12;25h[39;75H[?25ldone[H
[?12l[?25h[?12;25h[39;10H[?25letc/emacs/site-start.d/50dictionaries-common[6P[H
[?12l[?25h[?12;25h[39;35H[?25lerlang-mode.el (source)...[K[H
[?12l[?25h[?12;25h[39;61H[?25ldone[H
[?12l[?25h[?12;25h[39;35H[?25lhaskell-mode.el (source)...[K[H
[?12l[?25h[?12;25h[39;10H[?25lusr/share/emacs/site-lisp/elpa/haskel[34@l-mode-16.1/haskell-mode-autoloads[H
[?12l[?25h[?12;25h[39;96H[?25ldone[H
[?12l[?25h[?12;25h[39;10H[?25letc/emacs/site-start.d/50haskell-mode[34P[H
[?12l[?25h[?12;25h[39;35H[?25llatex-cjk-common.el (source)...[H
[?12l[?25h[?12;25h[39;10H[?25lusr/share/emacs/site-lisp/latex-cjk-commo[9@n/cjk-enc[H
[?12l[?25h[?12;25h[39;75H[?25ldone[H
[?12l[?25h[?12;25h[39;10H[?25letc/emacs/site-start.d/50latex-cjk-common[9P[H
[?12l[?25h[?12;25h[39;45H[?25lthai.el (source)...[K[H
[?12l[?25h[?12;25h[39;64H[?25ldone[H
[?12l[?25h[?12;25h[39;35H[?25lpsvn.el (source)...[K[H
[?12l[?25h[?12;25h[39;54H[?25ldone[H
[?12l[?25h[?12;25h[39;36H[?25lython-docutils.el (source)...[H
[?12l[?25h[?12;25h[39;65H[?25ldone[H
[?12l[?25h[?12;25h[39;35H[?25ltcsh.el (source)...[K[H
[?12l[?25h[?12;25h[39;54H[?25ldone[H
[?12l[?25h[?12;25h[39;36H[?25lexlive-lang-english.el (source)...[H
[?12l[?25h[?12;25h[39;70H[?25ldone[H
[?12l[?25h[?12;25h[>0c[?2004h[?1004h[39d[?25lFor information about GNU Emacs and the GNU system, type C-h C-a.[K[H
[?12l[?25h[?12;25h[39d[?25lFor information about GNU Emacs and the GNU system, type C-h C-a.[K[H[7mFile Edit Options Buffers Tools C Help                                                                                                                [0m[39;49m[27m
[A
[38;5;60m#include[39;49m [38;5;89m<stdio.h>[39;49m[K
[K
[38;5;89m/** Return instruction pointer for return */[39;49m[K
[38;5;129mstatic[39;49m [38;5;28mvoid[39;49m *[K
[38;5;21mget_rip[39;49m([38;5;28mvoid[39;49m)[K
{[K
  [38;5;28mvoid[39;49m *[38;5;130mrip[39;49m;[K
  [38;5;129m__asm__[39;49m([38;5;89m"leaq (%%rip), %0"[39;49m: [38;5;89m"=r"[39;49m(rip));[K
  [38;5;129mreturn[39;49m rip;[K
}[K
[K
[38;5;28mint[39;49m [38;5;21mmain[39;49m() {[K
  printf([38;5;89m"&get_rip() = %p; rip = %p\n"[39;49m, get_rip, get_rip());[K
  [38;5;129mreturn[39;49m 0;[K
}[K
[K
[K
[K
[K
[K
[K
[K
[K
[K
[K
[K
[K
[K
[K
[K
[K
[K
[K
[K
[K
[K
[30m[48;5;250m-UU-:----F1  [39;49m[1m[30m[48;5;250mrip.c       [0m[39;49m[30m[48;5;250m   All L1    Git-lab8  (C/*l Abbrev) 12:35PM 0.46 ---------------------------------------------------------------------------[39;49m
[A[2d[?12l[?25h[?12;25h[38;67H[?25l[30m[48;5;250m6PM 0.3[39;49m[H
[?12l[?25h[?12;25h[39d[K[2d[38;67H[?25l[30m[48;5;250m7PM 0.28[39;49m[H
[?12l[?25h[?12;25h[38;67H[?25l[30m[48;5;250m8PM 1.12[39;49m[H
[?12l[?25h[?12;25h[39d[K[?1004l[?2004l[?1l>[?12l[?25h[?1049l[23;0;0t[39;49mepotapo1@remote05:~/i220a/submit/lab8/exercises/rip$ make
cc -Wall -Og -std=c18 -S rip.c
cc -Wall -Og -std=c18    rip.c   -o rip
objdump -d rip > rip.dump
epotapo1@remote05:~/i220a/submit/lab8/exercises/rip$ ./rip
&get_rip() = 0x560054a60135; rip = 0x560054a6013c
epotapo1@remote05:~/i220a/submit/lab8/exercises/rip$ ls
Makefile  rip  rip.c  rip.dump	rip.s
epotapo1@remote05:~/i220a/submit/lab8/exercises/rip$ emacs rip.dump
[?1049h[22;0;0t[?12;25h[?1h=[H[2J[39d[K[?1l>[?12l[?25h[?1049l[23;0;0t[39;49m[?1049h[22;0;0t[?12;25h[?1h=[H[2J[38d[?25l[30m[47m-UUU:----F1  [39;49m[1m[30m[47m*scratch*   [0m[39;49m[30m[47m   All L1     (Fundamental) -------------------------------------------------------------------------------------------------[39;49m
[A[2d[?12l[?25h[?12;25h[39d[?25lLoading /etc/emacs/site-start.d/00debian.el (source)...done[K[H
[?12l[?25h[?12;25h[39;33H[?25l50a2ps.el (source)...[K[H
[?12l[?25h[?12;25h[39;54H[?25ldone[H
[?12l[?25h[?12;25h[39;36H[?25lsymptote.el (source)...[H
[?12l[?25h[?12;25h[39;59H[?25ldone[H
[?12l[?25h[?12;25h[39;36H[?25lutoconf.el (source)...[K[H
[?12l[?25h[?12;25h[39;58H[?25ldone[H
[?12l[?25h[?12;25h[39;35H[?25lcmake-data.el (source)...[K[H
[?12l[?25h[?12;25h[39;60H[?25ldone[H
[?12l[?25h[?12;25h[39;35H[?25ldevhelp.el (source)...[K[H
[?12l[?25h[?12;25h[39;57H[?25ldone[H
[?12l[?25h[?12;25h[39;36H[?25lictionaries-common.el (source)...[H
[?12l[?25h[?12;25h[39;9H[?25ldebian-ispell...[K[H
[?12l[?25h[?12;25h[39;9H[?25l/var/cache/dictionaries-common/emacsen-ispell-default.el (source)...[H
[?12l[?25h[?12;25h[39;77H[?25ldone[H
[?12l[?25h[?12;25h[39;9H[?25ldebian-ispell...done[K[H
[?12l[?25h[?12;25h[39;9H[?25l/var/cache/dictionaries-common/emacsen-ispell-dicts.el (source)...[H
[?12l[?25h[?12;25h[39;75H[?25ldone[H
[?12l[?25h[?12;25h[39;10H[?25letc/emacs/site-start.d/50dictionaries-common[6P[H
[?12l[?25h[?12;25h[39;35H[?25lerlang-mode.el (source)...[K[H
[?12l[?25h[?12;25h[39;61H[?25ldone[H
[?12l[?25h[?12;25h[39;35H[?25lhaskell-mode.el (source)...[K[H
[?12l[?25h[?12;25h[39;10H[?25lusr/share/emacs/site-lisp/elpa/haskel[34@l-mode-16.1/haskell-mode-autoloads[H
[?12l[?25h[?12;25h[39;96H[?25ldone[H
[?12l[?25h[?12;25h[39;10H[?25letc/emacs/site-start.d/50haskell-mode[34P[H
[?12l[?25h[?12;25h[39;35H[?25llatex-cjk-common.el (source)...[H
[?12l[?25h[?12;25h[39;10H[?25lusr/share/emacs/site-lisp/latex-cjk-commo[9@n/cjk-enc[H
[?12l[?25h[?12;25h[39;75H[?25ldone[H
[?12l[?25h[?12;25h[39;10H[?25letc/emacs/site-start.d/50latex-cjk-common[9P[H
[?12l[?25h[?12;25h[39;45H[?25lthai.el (source)...[K[H
[?12l[?25h[?12;25h[39;64H[?25ldone[H
[?12l[?25h[?12;25h[39;35H[?25lpsvn.el (source)...[K[H
[?12l[?25h[?12;25h[39;54H[?25ldone[H
[?12l[?25h[?12;25h[39;36H[?25lython-docutils.el (source)...[H
[?12l[?25h[?12;25h[39;65H[?25ldone[H
[?12l[?25h[?12;25h[39;35H[?25ltcsh.el (source)...[K[H
[?12l[?25h[?12;25h[39;54H[?25ldone[H
[?12l[?25h[?12;25h[39;36H[?25lexlive-lang-english.el (source)...[H
[?12l[?25h[?12;25h[39;70H[?25ldone[H
[?12l[?25h[?12;25h[>0c[?2004h[?1004h[39d[?25lFor information about GNU Emacs and the GNU system, type C-h C-a.[K[H
[?12l[?25h[?12;25h[39d[?25lFor information about GNU Emacs and the GNU system, type C-h C-a.[K[H[7mFile Edit Options Buffers Tools Help                                                                                                                  [0m[39;49m[27m
[A
[K
rip:     file format elf64-x86-64[K
[K
[K
Disassembly of section .init:[K
[K
0000000000001000 <_init>:[K
    1000:       48 83 ec 08             sub    $0x8,%rsp[K
    1004:       48 8b 05 dd 2f 00 00    mov    0x2fdd(%rip),%rax        # 3fe8 <__gmon_start__>[K
    100b:       48 85 c0                test   %rax,%rax[K
    100e:       74 02                   je     1012 <_init+0x12>[K
    1010:       ff d0                   callq  *%rax[K
    1012:       48 83 c4 08             add    $0x8,%rsp[K
    1016:       c3                      retq[K
[K
Disassembly of section .plt:[K
[K
0000000000001020 <.plt>:[K
    1020:       ff 35 e2 2f 00 00       pushq  0x2fe2(%rip)        # 4008 <_GLOBAL_OFFSET_TABLE_+0x8>[K
    1026:       ff 25 e4 2f 00 00       jmpq   *0x2fe4(%rip)        # 4010 <_GLOBAL_OFFSET_TABLE_+0x10>[K
    102c:       0f 1f 40 00             nopl   0x0(%rax)[K
[K
0000000000001030 <printf@plt>:[K
    1030:       ff 25 e2 2f 00 00       jmpq   *0x2fe2(%rip)        # 4018 <printf@GLIBC_2.2.5>[K
    1036:       68 00 00 00 00          pushq  $0x0[K
    103b:       e9 e0 ff ff ff          jmpq   1020 <.plt>[K
[K
Disassembly of section .plt.got:[K
[K
0000000000001040 <__cxa_finalize@plt>:[K
    1040:       ff 25 b2 2f 00 00       jmpq   *0x2fb2(%rip)        # 3ff8 <__cxa_finalize@GLIBC_2.2.5>[K
    1046:       66 90                   xchg   %ax,%ax[K
[K
Disassembly of section .text:[K
[K
0000000000001050 <_start>:[K
[30m[48;5;250m-UU-:----F1  [39;49m[1m[30m[48;5;250mrip.dump    [0m[39;49m[30m[48;5;250m   Top L1     (Fundamental) 12:39PM 0.60 ------------------------------------------------------------------------------------[39;49m
[A[2d[?12l[?25h[?12;25h[39d[K[38;34H[?25l[30m[48;5;250m2[39;49m[H

[?12l[?25h[?12;25h[38;34H[?25l[30m[48;5;250m3[39;49m[4;1H[?12l[?25h[?12;25h[38;34H[?25l[30m[48;5;250m4[39;49m[5;1H[?12l[?25h[?12;25h[38;34H[?25l[30m[48;5;250m5[39;49m[6;1H[?12l[?25h[?12;25h[38;34H[?25l[30m[48;5;250m6[39;49m[7;1H[?12l[?25h[?12;25h[38;34H[?25l[30m[48;5;250m7[39;49m[8;1H[?12l[?25h[?12;25h[38;34H[?25l[30m[48;5;250m8[39;49m[9;1H[?12l[?25h[?12;25h[38;34H[?25l[30m[48;5;250m9[39;49m[10;1H[?12l[?25h[?12;25h[38;34H[?25l[30m[48;5;250m10[39;49m[11;1H[?12l[?25h[?12;25h[38;35H[?25l[30m[48;5;250m1[39;49m[12;1H[?12l[?25h[?12;25h[38;35H[?25l[30m[48;5;250m2[39;49m[13;1H[?12l[?25h[?12;25h[38;35H[?25l[30m[48;5;250m3[39;49m[14;1H[?12l[?25h[?12;25h[38;35H[?25l[30m[48;5;250m4[39;49m[15;1H[?12l[?25h[?12;25h[38;35H[?25l[30m[48;5;250m5[39;49m[16;1H[?12l[?25h[?12;25h[38;35H[?25l[30m[48;5;250m6[39;49m[17;1H[?12l[?25h[?12;25h[38;35H[?25l[30m[48;5;250m7[39;49m[18;1H[?12l[?25h[?12;25h[38;35H[?25l[30m[48;5;250m8[39;49m[19;1H[?12l[?25h[?12;25h[38;35H[?25l[30m[48;5;250m9[39;49m[20;1H[?12l[?25h[?12;25h[38;34H[?25l[30m[48;5;250m20[39;49m[21;1H[?12l[?25h[?12;25h[38;35H[?25l[30m[48;5;250m1[39;49m[22;1H[?12l[?25h[?12;25h[38;35H[?25l[30m[48;5;250m3[39;49m[24;1H[?12l[?25h[?12;25h[38;35H[?25l[30m[48;5;250m5[39;49m[26;1H[?12l[?25h[?12;25h[38;35H[?25l[30m[48;5;250m6[39;49m[27;1H[?12l[?25h[?12;25h[38;35H[?25l[30m[48;5;250m7[39;49m[28;1H[?12l[?25h[?12;25h[38;35H[?25l[30m[48;5;250m8[39;49m[29;1H[?12l[?25h[?12;25h[38;35H[?25l[30m[48;5;250m9[39;49m[30;1H[?12l[?25h[?12;25h[38;34H[?25l[30m[48;5;250m30[39;49m[31;1H[?12l[?25h[?12;25h[38;35H[?25l[30m[48;5;250m1[39;49m[32;1H[?12l[?25h[?12;25h[38;35H[?25l[30m[48;5;250m2[39;49m[33;1H[?12l[?25h[?12;25h[38;35H[?25l[30m[48;5;250m3[39;49m[34;1H[?12l[?25h[?12;25h[38;35H[?25l[30m[48;5;250m4[39;49m[35;1H[?12l[?25h[?12;25h[38;35H[?25l[30m[48;5;250m5[39;49m[36;1H[?12l[?25h[?12;25h[38;35H[?25l[30m[48;5;250m6[39;49m[A[?12l[?25h[?12;25h[1;37r[2;1H[18M[1;39r[20;1H[?25l    1050:       31 ed                   xor    %ebp,%ebp[K
    1052:       49 89 d1                mov    %rdx,%r9[K
    1055:       5e                      pop    %rsi[K
    1056:       48 89 e2                mov    %rsp,%rdx[K
    1059:       48 83 e4 f0             and    $0xfffffffffffffff0,%rsp[K
    105d:       50                      push   %rax[K
    105e:       54                      push   %rsp[K
    105f:       4c 8d 05 6a 01 00 00    lea    0x16a(%rip),%r8        # 11d0 <__libc_csu_fini>[K
    1066:       48 8d 0d 03 01 00 00    lea    0x103(%rip),%rcx        # 1170 <__libc_csu_init>[K
    106d:       48 8d 3d c9 00 00 00    lea    0xc9(%rip),%rdi        # 113d <main>[K
    1074:       ff 15 66 2f 00 00       callq  *0x2f66(%rip)        # 3fe0 <__libc_start_main@GLIBC_2.2.5>[K
    107a:       f4                      hlt[K
    107b:       0f 1f 44 00 00          nopl   0x0(%rax,%rax,1)[K
[K
0000000000001080 <deregister_tm_clones>:[K
    1080:       48 8d 3d a9 2f 00 00    lea    0x2fa9(%rip),%rdi        # 4030 <__TMC_END__>[K
    1087:       48 8d 05 a2 2f 00 00    lea    0x2fa2(%rip),%rax        # 4030 <__TMC_END__>[K
    108e:       48 39 f8                cmp    %rdi,%rax[K[38;29H[30m[48;5;250m 7% L37[39;49m[20;1H[?12l[?25h[?12;25h[38;35H[?25l[30m[48;5;250m8[39;49m[21;1H[?12l[?25h[?12;25h[38;35H[?25l[30m[48;5;250m9[39;49m[22;1H[?12l[?25h[?12;25h[38;34H[?25l[30m[48;5;250m40[39;49m[23;1H[?12l[?25h[?12;25h[38;35H[?25l[30m[48;5;250m1[39;49m[24;1H[?12l[?25h[?12;25h[38;35H[?25l[30m[48;5;250m2[39;49m[25;1H[?12l[?25h[?12;25h[38;35H[?25l[30m[48;5;250m3[39;49m[26;1H[?12l[?25h[?12;25h[38;35H[?25l[30m[48;5;250m4[39;49m[27;1H[?12l[?25h[?12;25h[38;35H[?25l[30m[48;5;250m5[39;49m[28;1H[?12l[?25h[?12;25h[38;35H[?25l[30m[48;5;250m6[39;49m[29;1H[?12l[?25h[?12;25h[38;35H[?25l[30m[48;5;250m7[39;49m[30;1H[?12l[?25h[?12;25h[38;35H[?25l[30m[48;5;250m8[39;49m[31;1H[?12l[?25h[?12;25h[38;35H[?25l[30m[48;5;250m9[39;49m[32;1H[?12l[?25h[?12;25h[38;34H[?25l[30m[48;5;250m50[39;49m[33;1H[?12l[?25h[?12;25h[38;35H[?25l[30m[48;5;250m1[39;49m[34;1H[?12l[?25h[?12;25h[38;35H[?25l[30m[48;5;250m2[39;49m[35;1H[?12l[?25h[?12;25h[38;35H[?25l[30m[48;5;250m3[39;49m[36;1H[?12l[?25h[?12;25h[38;35H[?25l[30m[48;5;250m4[39;49m[A[?12l[?25h[?12;25h[1;37r[2;1H[18M[1;39r[20;1H[?25l    1091:       74 15                   je     10a8 <deregister_tm_clones+0x28>[K
    1093:       48 8b 05 3e 2f 00 00    mov    0x2f3e(%rip),%rax        # 3fd8 <_ITM_deregisterTMCloneTable>[K
    109a:       48 85 c0                test   %rax,%rax[K
    109d:       74 09                   je     10a8 <deregister_tm_clones+0x28>[K
    109f:       ff e0                   jmpq   *%rax[K
    10a1:       0f 1f 80 00 00 00 00    nopl   0x0(%rax)[K
    10a8:       c3                      retq[K
    10a9:       0f 1f 80 00 00 00 00    nopl   0x0(%rax)[K
[K
00000000000010b0 <register_tm_clones>:[K
    10b0:       48 8d 3d 79 2f 00 00    lea    0x2f79(%rip),%rdi        # 4030 <__TMC_END__>[K
    10b7:       48 8d 35 72 2f 00 00    lea    0x2f72(%rip),%rsi        # 4030 <__TMC_END__>[K
    10be:       48 29 fe                sub    %rdi,%rsi[K
    10c1:       48 c1 fe 03             sar    $0x3,%rsi[K
    10c5:       48 89 f0                mov    %rsi,%rax[K
    10c8:       48 c1 e8 3f             shr    $0x3f,%rax[K
    10cc:       48 01 c6                add    %rax,%rsi[K
    10cf:       48 d1 fe                sar    %rsi[K[38;29H[30m[48;5;250m17% L55[39;49m[20;1H[?12l[?25h[?12;25h[38;35H[?25l[30m[48;5;250m6[39;49m[21;1H[?12l[?25h[?12;25h[38;35H[?25l[30m[48;5;250m7[39;49m[22;1H[?12l[?25h[?12;25h[38;35H[?25l[30m[48;5;250m8[39;49m[23;1H[?12l[?25h[?12;25h[38;35H[?25l[30m[48;5;250m9[39;49m[24;1H[?12l[?25h[?12;25h[38;34H[?25l[30m[48;5;250m60[39;49m[25;1H[?12l[?25h[?12;25h[38;35H[?25l[30m[48;5;250m1[39;49m[26;1H[?12l[?25h[?12;25h[38;35H[?25l[30m[48;5;250m2[39;49m[27;1H[?12l[?25h[?12;25h[38;35H[?25l[30m[48;5;250m3[39;49m[28;1H[?12l[?25h[?12;25h[38;35H[?25l[30m[48;5;250m4[39;49m[29;1H[?12l[?25h[?12;25h[38;35H[?25l[30m[48;5;250m5[39;49m[30;1H[?12l[?25h[?12;25h[38;35H[?25l[30m[48;5;250m6[39;49m[31;1H[?12l[?25h[?12;25h[38;35H[?25l[30m[48;5;250m7[39;49m[32;1H[?12l[?25h[?12;25h[38;35H[?25l[30m[48;5;250m8[39;49m[33;1H[?12l[?25h[?12;25h[38;35H[?25l[30m[48;5;250m9[39;49m[34;1H[?12l[?25h[?12;25h[38;34H[?25l[30m[48;5;250m70[39;49m[35;1H[?12l[?25h[?12;25h[38;35H[?25l[30m[48;5;250m1[39;49m[36;1H[?12l[?25h[?12;25h[38;35H[?25l[30m[48;5;250m2[39;49m[A[?12l[?25h[?12;25h[1;37r[2;1H[18M[1;39r[20;1H[?25l    10d2:       74 14                   je     10e8 <register_tm_clones+0x38>[K
    10d4:       48 8b 05 15 2f 00 00    mov    0x2f15(%rip),%rax        # 3ff0 <_ITM_registerTMCloneTable>[K
    10db:       48 85 c0                test   %rax,%rax[K
    10de:       74 08                   je     10e8 <register_tm_clones+0x38>[K
    10e0:       ff e0                   jmpq   *%rax[K
    10e2:       66 0f 1f 44 00 00       nopw   0x0(%rax,%rax,1)[K
    10e8:       c3                      retq[K
    10e9:       0f 1f 80 00 00 00 00    nopl   0x0(%rax)[K
[K
00000000000010f0 <__do_global_dtors_aux>:[K
    10f0:       80 3d 39 2f 00 00 00    cmpb   $0x0,0x2f39(%rip)        # 4030 <__TMC_END__>[K
    10f7:       75 2f                   jne    1128 <__do_global_dtors_aux+0x38>[K
    10f9:       55                      push   %rbp[K
    10fa:       48 83 3d f6 2e 00 00    cmpq   $0x0,0x2ef6(%rip)        # 3ff8 <__cxa_finalize@GLIBC_2.2.5>[K
    1101:       00[K
    1102:       48 89 e5                mov    %rsp,%rbp[K
    1105:       74 0c                   je     1113 <__do_global_dtors_aux+0x23>[K
    1107:       48 8b 3d 1a 2f 00 00    mov    0x2f1a(%rip),%rdi        # 4028 <__dso_handle>[K[38;29H[30m[48;5;250m30% L73[39;49m[20;1H[?12l[?25h[?12;25h[38;35H[?25l[30m[48;5;250m4[39;49m[21;1H[?12l[?25h[?12;25h[38;35H[?25l[30m[48;5;250m5[39;49m[22;1H[?12l[?25h[?12;25h[38;35H[?25l[30m[48;5;250m6[39;49m[23;1H[?12l[?25h[?12;25h[38;35H[?25l[30m[48;5;250m7[39;49m[24;1H[?12l[?25h[?12;25h[38;35H[?25l[30m[48;5;250m8[39;49m[25;1H[?12l[?25h[?12;25h[38;35H[?25l[30m[48;5;250m9[39;49m[26;1H[?12l[?25h[?12;25h[38;34H[?25l[30m[48;5;250m80[39;49m[27;1H[?12l[?25h[?12;25h[38;35H[?25l[30m[48;5;250m1[39;49m[28;1H[?12l[?25h[?12;25h[38;35H[?25l[30m[48;5;250m2[39;49m[29;1H[?12l[?25h[?12;25h[38;35H[?25l[30m[48;5;250m3[39;49m[30;1H[?12l[?25h[?12;25h[38;35H[?25l[30m[48;5;250m4[39;49m[31;1H[?12l[?25h[?12;25h[38;35H[?25l[30m[48;5;250m5[39;49m[32;1H[?12l[?25h[?12;25h[38;35H[?25l[30m[48;5;250m6[39;49m[33;1H[?12l[?25h[?12;25h[38;35H[?25l[30m[48;5;250m7[39;49m[34;1H[?12l[?25h[?12;25h[38;35H[?25l[30m[48;5;250m8[39;49m[35;1H[?12l[?25h[?12;25h[38;35H[?25l[30m[48;5;250m9[39;49m[36;1H[?12l[?25h[?12;25h[38;34H[?25l[30m[48;5;250m90[39;49m[A[?12l[?25h[?12;25h[1;37r[2;1H[18M[1;39r[20;1H[?25l    110e:       e8 2d ff ff ff          callq  1040 <__cxa_finalize@plt>[K
    1113:       e8 68 ff ff ff          callq  1080 <deregister_tm_clones>[K
    1118:       c6 05 11 2f 00 00 01    movb   $0x1,0x2f11(%rip)        # 4030 <__TMC_END__>[K
    111f:       5d                      pop    %rbp[K
    1120:       c3                      retq[K
    1121:       0f 1f 80 00 00 00 00    nopl   0x0(%rax)[K
    1128:       c3                      retq[K
    1129:       0f 1f 80 00 00 00 00    nopl   0x0(%rax)[K
[K
0000000000001130 <frame_dummy>:[K
    1130:       e9 7b ff ff ff          jmpq   10b0 <register_tm_clones>[K
[K
0000000000001135 <get_rip>:[K
    1135:       48 8d 05 00 00 00 00    lea    0x0(%rip),%rax        # 113c <get_rip+0x7>[K
    113c:       c3                      retq[K
[K
000000000000113d <main>:[K
    113d:       48 83 ec 08             sub    $0x8,%rsp[K[38;29H[30m[48;5;250m43% L91[39;49m[20;1H[?12l[?25h[?12;25h[38;35H[?25l[30m[48;5;250m2[39;49m[21;1H[?12l[?25h[?12;25h[38;35H[?25l[30m[48;5;250m3[39;49m[22;1H[?12l[?25h[?12;25h[38;35H[?25l[30m[48;5;250m4[39;49m[23;1H[?12l[?25h[?12;25h[38;35H[?25l[30m[48;5;250m5[39;49m[24;1H[?12l[?25h[?12;25h[38;35H[?25l[30m[48;5;250m6[39;49m[25;1H[?12l[?25h[?12;25h[38;35H[?25l[30m[48;5;250m7[39;49m[26;1H[?12l[?25h[?12;25h[38;35H[?25l[30m[48;5;250m8[39;49m[27;1H[?12l[?25h[?12;25h[38;35H[?25l[30m[48;5;250m9[39;49m[28;1H[?12l[?25h[?12;25h[38;34H[?25l[30m[48;5;250m100[39;49m[29;1H[?12l[?25h[?12;25h[38;36H[?25l[30m[48;5;250m1[39;49m[30;1H[?12l[?25h[?12;25h[38;36H[?25l[30m[48;5;250m2[39;49m[31;1H[?12l[?25h[?12;25h[38;36H[?25l[30m[48;5;250m3[39;49m[32;1H[?12l[?25h[?12;25h[38;36H[?25l[30m[48;5;250m4[39;49m[33;1H[?12l[?25h[?12;25h[38;36H[?25l[30m[48;5;250m3[39;49m[32;1H[?12l[?25h[?12;25h[38;36H[?25l[30m[48;5;250m4[39;49m[33;1H[?12l[?25h[?12;25h[38;36H[?25l[30m[48;5;250m5[39;49m[34;1H[?12l[?25h[?12;25h[38;36H[?25l[30m[48;5;250m6[39;49m[35;1H[?12l[?25h[?12;25h[38;36H[?25l[30m[48;5;250m7[39;49m[36;1H[?12l[?25h[?12;25h[38;36H[?25l[30m[48;5;250m8[39;49m[A[?12l[?25h[?12;25h[1;37r[2;1H[18M[1;39r[20;1H[?25l    1141:       e8 ef ff ff ff          callq  1135 <get_rip>[K
    1146:       48 89 c2                mov    %rax,%rdx[K
    1149:       48 8d 35 e5 ff ff ff    lea    -0x1b(%rip),%rsi        # 1135 <get_rip>[K
    1150:       48 8d 3d ad 0e 00 00    lea    0xead(%rip),%rdi        # 2004 <_IO_stdin_used+0x4>[K
    1157:       b8 00 00 00 00          mov    $0x0,%eax[K
    115c:       e8 cf fe ff ff          callq  1030 <printf@plt>[K
    1161:       b8 00 00 00 00          mov    $0x0,%eax[K
    1166:       48 83 c4 08             add    $0x8,%rsp[K
    116a:       c3                      retq[K
    116b:       0f 1f 44 00 00          nopl   0x0(%rax,%rax,1)[K
[K
0000000000001170 <__libc_csu_init>:[K
    1170:       41 57                   push   %r15[K
    1172:       49 89 d7                mov    %rdx,%r15[K
    1175:       41 56                   push   %r14[K
    1177:       49 89 f6                mov    %rsi,%r14[K
    117a:       41 55                   push   %r13[K
    117c:       41 89 fd                mov    %edi,%r13d[K[38;29H[30m[48;5;250m57% L109[39;49m[20;1H[?12l[?25h[?12;25h[38;35H[?25l[30m[48;5;250m10[39;49m[21;1H[?12l[?25h[?12;25h[38;36H[?25l[30m[48;5;250m1[39;49m[22;1H[?12l[?25h[?12;25h[38;36H[?25l[30m[48;5;250m2[39;49m[23;1H[?12l[?25h[?12;25h[38;36H[?25l[30m[48;5;250m3[39;49m[24;1H[?12l[?25h[?12;25h[38;36H[?25l[30m[48;5;250m4[39;49m[25;1H[?12l[?25h[?12;25h[38;36H[?25l[30m[48;5;250m5[39;49m[26;1H[?12l[?25h[?12;25h[38;36H[?25l[30m[48;5;250m6[39;49m[27;1H[?12l[?25h[?12;25h[38;36H[?25l[30m[48;5;250m7[39;49m[28;1H[?12l[?25h[?12;25h[38;36H[?25l[30m[48;5;250m8[39;49m[29;1H[?12l[?25h[?12;25h[38;36H[?25l[30m[48;5;250m9[39;49m[30;1H[?12l[?25h[?12;25h[38;35H[?25l[30m[48;5;250m20[39;49m[31;1H[?12l[?25h[?12;25h[38;36H[?25l[30m[48;5;250m1[39;49m[32;1H[?12l[?25h[?12;25h[38;36H[?25l[30m[48;5;250m2[39;49m[33;1H[?12l[?25h[?12;25h[38;36H[?25l[30m[48;5;250m3[39;49m[34;1H[?12l[?25h[?12;25h[38;36H[?25l[30m[48;5;250m4[39;49m[35;1H[?12l[?25h[?12;25h[38;36H[?25l[30m[48;5;250m5[39;49m[36;1H[?12l[?25h[?12;25h[38;36H[?25l[30m[48;5;250m6[39;49m[A[?12l[?25h[?12;25h[1;37r[2;1H[18M[1;39r[20;1H[?25l    117f:       41 54                   push   %r12[K
    1181:       4c 8d 25 60 2c 00 00    lea    0x2c60(%rip),%r12        # 3de8 <__frame_dummy_init_array_entry>[K
    1188:       55                      push   %rbp[K
    1189:       48 8d 2d 60 2c 00 00    lea    0x2c60(%rip),%rbp        # 3df0 <__init_array_end>[K
    1190:       53                      push   %rbx[K
    1191:       4c 29 e5                sub    %r12,%rbp[K
    1194:       48 83 ec 08             sub    $0x8,%rsp[K
    1198:       e8 63 fe ff ff          callq  1000 <_init>[K
    119d:       48 c1 fd 03             sar    $0x3,%rbp[K
    11a1:       74 1b                   je     11be <__libc_csu_init+0x4e>[K
    11a3:       31 db                   xor    %ebx,%ebx[K
    11a5:       0f 1f 00                nopl   (%rax)[K
    11a8:       4c 89 fa                mov    %r15,%rdx[K
    11ab:       4c 89 f6                mov    %r14,%rsi[K
    11ae:       44 89 ef                mov    %r13d,%edi[K
    11b1:       41 ff 14 dc             callq  *(%r12,%rbx,8)[K
    11b5:       48 83 c3 01             add    $0x1,%rbx[K
    11b9:       48 39 dd                cmp    %rbx,%rbp[K[38;29H[30m[48;5;250m67% L127[39;49m[20;1H[?12l[?25h[?12;25h[38;36H[?25l[30m[48;5;250m8[39;49m[21;1H[?12l[?25h[?12;25h[38;36H[?25l[30m[48;5;250m9[39;49m[22;1H[?12l[?25h[?12;25h[38;35H[?25l[30m[48;5;250m30[39;49m[23;1H[?12l[?25h[?12;25h[38;36H[?25l[30m[48;5;250m1[39;49m[24;1H[?12l[?25h[?12;25h[38;36H[?25l[30m[48;5;250m2[39;49m[25;1H[?12l[?25h[?12;25h[38;36H[?25l[30m[48;5;250m3[39;49m[26;1H[?12l[?25h[?12;25h[38;36H[?25l[30m[48;5;250m4[39;49m[27;1H[?12l[?25h[?12;25h[38;36H[?25l[30m[48;5;250m5[39;49m[28;1H[?12l[?25h[?12;25h[38;36H[?25l[30m[48;5;250m6[39;49m[29;1H[?12l[?25h[?12;25h[38;36H[?25l[30m[48;5;250m7[39;49m[30;1H[?12l[?25h[?12;25h[38;36H[?25l[30m[48;5;250m8[39;49m[31;1H[?12l[?25h[?12;25h[38;36H[?25l[30m[48;5;250m9[39;49m[32;1H[?12l[?25h[?12;25h[38;35H[?25l[30m[48;5;250m40[39;49m[33;1H[?12l[?25h[?12;25h[38;36H[?25l[30m[48;5;250m1[39;49m[34;1H[?12l[?25h[?12;25h[38;36H[?25l[30m[48;5;250m2[39;49m[35;1H[?12l[?25h[?12;25h[38;36H[?25l[30m[48;5;250m3[39;49m[36;1H[?12l[?25h[?12;25h[38;36H[?25l[30m[48;5;250m4[39;49m[A[?12l[?25h[?12;25h[1;37r[2;1H[18M[1;39r[20;1H[?25l    11bc:       75 ea                   jne    11a8 <__libc_csu_init+0x38>[K
    11be:       48 83 c4 08             add    $0x8,%rsp[K
    11c2:       5b                      pop    %rbx[K
    11c3:       5d                      pop    %rbp[K
    11c4:       41 5c                   pop    %r12[K
    11c6:       41 5d                   pop    %r13[K
    11c8:       41 5e                   pop    %r14[K
    11ca:       41 5f                   pop    %r15[K
    11cc:       c3                      retq[K
    11cd:       0f 1f 00                nopl   (%rax)[K
[K
00000000000011d0 <__libc_csu_fini>:[K
    11d0:       c3                      retq[K
[K
Disassembly of section .fini:[K
[K
00000000000011d4 <_fini>:[K
    11d4:       48 83 ec 08             sub    $0x8,%rsp[K[38;29H[30m[48;5;250m78% L145[39;49m[20;1H[?12l[?25h[?12;25h[38;36H[?25l[30m[48;5;250m6[39;49m[21;1H[?12l[?25h[?12;25h[38;36H[?25l[30m[48;5;250m7[39;49m[22;1H[?12l[?25h[?12;25h[38;36H[?25l[30m[48;5;250m8[39;49m[23;1H[?12l[?25h[?12;25h[38;36H[?25l[30m[48;5;250m9[39;49m[24;1H[?12l[?25h[?12;25h[38;35H[?25l[30m[48;5;250m50[39;49m[25;1H[?12l[?25h[?12;25h[38;36H[?25l[30m[48;5;250m1[39;49m[26;1H[?12l[?25h[?12;25h[38;36H[?25l[30m[48;5;250m2[39;49m[27;1H[?12l[?25h[?12;25h[38;36H[?25l[30m[48;5;250m3[39;49m[28;1H[?12l[?25h[?12;25h[38;36H[?25l[30m[48;5;250m4[39;49m[29;1H[?12l[?25h[?12;25h[38;36H[?25l[30m[48;5;250m5[39;49m[30;1H[?12l[?25h[?12;25h[38;36H[?25l[30m[48;5;250m6[39;49m[31;1H[?12l[?25h[?12;25h[38;36H[?25l[30m[48;5;250m7[39;49m[32;1H[?12l[?25h[?12;25h[38;36H[?25l[30m[48;5;250m8[39;49m[33;1H[?12l[?25h[?12;25h[38;36H[?25l[30m[48;5;250m9[39;49m[34;1H[?12l[?25h[?12;25h[38;35H[?25l[30m[48;5;250m60[39;49m[35;1H[?12l[?25h[?12;25h[38;36H[?25l[30m[48;5;250m1[39;49m[36;1H[?12l[?25h[?12;25h[38;36H[?25l[30m[48;5;250m2[39;49m[A[?12l[?25h[?12;25h[1;37r[2;1H[18M[1;39r[20;1H[?25l    11d8:       48 83 c4 08             add    $0x8,%rsp[K
    11dc:       c3                      retq[K
[K
[K
[K
[K
[K
[K
[K
[K
[K
[K
[K
[K
[K
[K
[K
[K[38;29H[30m[48;5;250mBot L163[39;49m[20;1H[?12l[?25h[?12;25h[38;36H[?25l[30m[48;5;250m4[39;49m[21;1H[?12l[?25h[?12;25h[38;36H[?25l[30m[48;5;250m5[39;49m[22;1H[?12l[?25h[?12;25h[39d[?25lEnd of buffer[22;1H[?12l[?25h[?12;25h[39d[K[22d[39d[K[?1004l[?2004l[?1l>[?12l[?25h[?1049l[23;0;0t[39;49mepotapo1@remote05:~/i220a/submit/lab8/exercises/rip$ .[Kcd ../re[Ksp/
epotapo1@remote05:~/i220a/submit/lab8/exercises/rsp$ ls
Makefile  rsp.c
epotapo1@remote05:~/i220a/submit/lab8/exercises/rsp$ emacs rsp.c 
[?1049h[22;0;0t[?12;25h[?1h=[H[2J[39d[K[?1l>[?12l[?25h[?1049l[23;0;0t[39;49m[?1049h[22;0;0t[?12;25h[?1h=[H[2J[38d[?25l[30m[47m-UUU:----F1  [39;49m[1m[30m[47m*scratch*   [0m[39;49m[30m[47m   All L1     (Fundamental) -------------------------------------------------------------------------------------------------[39;49m
[A[2d[?12l[?25h[?12;25h[39d[?25lLoading /etc/emacs/site-start.d/00debian.el (source)...done[K[H
[?12l[?25h[?12;25h[39;33H[?25l50a2ps.el (source)...[K[H
[?12l[?25h[?12;25h[39;54H[?25ldone[H
[?12l[?25h[?12;25h[39;36H[?25lsymptote.el (source)...[H
[?12l[?25h[?12;25h[39;59H[?25ldone[H
[?12l[?25h[?12;25h[39;36H[?25lutoconf.el (source)...[K[H
[?12l[?25h[?12;25h[39;58H[?25ldone[H
[?12l[?25h[?12;25h[39;35H[?25lcmake-data.el (source)...[K[H
[?12l[?25h[?12;25h[39;60H[?25ldone[H
[?12l[?25h[?12;25h[39;35H[?25ldevhelp.el (source)...[K[H
[?12l[?25h[?12;25h[39;57H[?25ldone[H
[?12l[?25h[?12;25h[39;36H[?25lictionaries-common.el (source)...[H
[?12l[?25h[?12;25h[39;9H[?25ldebian-ispell...[K[H
[?12l[?25h[?12;25h[39;9H[?25l/var/cache/dictionaries-common/emacsen-ispell-default.el (source)...[H
[?12l[?25h[?12;25h[39;77H[?25ldone[H
[?12l[?25h[?12;25h[39;9H[?25ldebian-ispell...done[K[H
[?12l[?25h[?12;25h[39;9H[?25l/var/cache/dictionaries-common/emacsen-ispell-dicts.el (source)...[H
[?12l[?25h[?12;25h[39;75H[?25ldone[H
[?12l[?25h[?12;25h[39;10H[?25letc/emacs/site-start.d/50dictionaries-common[6P[H
[?12l[?25h[?12;25h[39;35H[?25lerlang-mode.el (source)...[K[H
[?12l[?25h[?12;25h[39;61H[?25ldone[H
[?12l[?25h[?12;25h[39;35H[?25lhaskell-mode.el (source)...[K[H
[?12l[?25h[?12;25h[39;10H[?25lusr/share/emacs/site-lisp/elpa/haskel[34@l-mode-16.1/haskell-mode-autoloads[H
[?12l[?25h[?12;25h[39;96H[?25ldone[H
[?12l[?25h[?12;25h[39;10H[?25letc/emacs/site-start.d/50haskell-mode[34P[H
[?12l[?25h[?12;25h[39;35H[?25llatex-cjk-common.el (source)...[H
[?12l[?25h[?12;25h[39;10H[?25lusr/share/emacs/site-lisp/latex-cjk-commo[9@n/cjk-enc[H
[?12l[?25h[?12;25h[39;75H[?25ldone[H
[?12l[?25h[?12;25h[39;10H[?25letc/emacs/site-start.d/50latex-cjk-common[9P[H
[?12l[?25h[?12;25h[39;45H[?25lthai.el (source)...[K[H
[?12l[?25h[?12;25h[39;64H[?25ldone[H
[?12l[?25h[?12;25h[39;35H[?25lpsvn.el (source)...[K[H
[?12l[?25h[?12;25h[39;54H[?25ldone[H
[?12l[?25h[?12;25h[39;36H[?25lython-docutils.el (source)...[H
[?12l[?25h[?12;25h[39;65H[?25ldone[H
[?12l[?25h[?12;25h[39;35H[?25ltcsh.el (source)...[K[H
[?12l[?25h[?12;25h[39;54H[?25ldone[H
[?12l[?25h[?12;25h[39;36H[?25lexlive-lang-english.el (source)...[H
[?12l[?25h[?12;25h[39;70H[?25ldone[H
[?12l[?25h[?12;25h[>0c[?2004h[?1004h[39d[?25lFor information about GNU Emacs and the GNU system, type C-h C-a.[K[H
[?12l[?25h[?12;25h[39d[?25lFor information about GNU Emacs and the GNU system, type C-h C-a.[K[H[7mFile Edit Options Buffers Tools C Help                                                                                                                [0m[39;49m[27m
[A
[38;5;60m#include[39;49m [38;5;89m<stdio.h>[39;49m[K
[K
[38;5;89m/** Return value of [39;49m[38;5;30m%rsp[39;49m[38;5;89m register just before return */[39;49m[K
[38;5;129mstatic[39;49m [38;5;28mvoid[39;49m *[K
[38;5;21mget_rsp[39;49m([38;5;28mvoid[39;49m)[K
{[K
  [38;5;28mvoid[39;49m *[38;5;130mrsp[39;49m;[K
  [38;5;124m//@TODO: inline assembly to set rsp C var to value of %rsp register [39;49m                                                                                
[A
  [38;5;129mreturn[39;49m rsp;[K
}[K
[K
[38;5;28mint[39;49m [38;5;21mmain[39;49m() {[K
  [38;5;28mint[39;49m [38;5;130mstkVar[39;49m;[K
  printf([38;5;89m"&stkVar = %p; rsp = %p\n"[39;49m, &stkVar, get_rsp());[K
  [38;5;129mreturn[39;49m 0;[K
}[K
[K
[K
[K
[K
[K
[K
[K
[K
[K
[K
[K
[K
[K
[K
[K
[K
[K
[K
[K
[K
[30m[48;5;250m-UU-:----F1  [39;49m[1m[30m[48;5;250mrsp.c       [0m[39;49m[30m[48;5;250m   All L1    Git-lab8  (C/*l Abbrev) 12:40PM 0.43 ---------------------------------------------------------------------------[39;49m
[A[2d[?12l[?25h[?12;25h[39d[K[2d[38;34H[?25l[30m[48;5;250m2[39;49m[H

[?12l[?25h[?12;25h[38;34H[?25l[30m[48;5;250m3[39;49m[4;1H[?12l[?25h[?12;25h[38;34H[?25l[30m[48;5;250m4[39;49m[5;1H[?12l[?25h[?12;25h[38;34H[?25l[30m[48;5;250m5[39;49m[6;1H[?12l[?25h[?12;25h[38;34H[?25l[30m[48;5;250m6[39;49m[7;1H[?12l[?25h[?12;25h[38;34H[?25l[30m[48;5;250m7[39;49m[8;1H[?12l[?25h[?12;25h[38;34H[?25l[30m[48;5;250m8[39;49m[9;1H[?12l[?25h[?12;25h[C[C[38;67H[?25l[30m[48;5;250m1PM 0.46[39;49m[9;3H[?12l[?25h[?12;25h[1;18r[9;1H[1L[1;39r[9;1H[K[38;6H[?25l[30m[48;5;250m**--F1  [39;49m[1m[30m[48;5;250mrsp.c       [0m[39;49m[30m[48;5;250m   All L9[39;49m[10;3H[?12l[?25h[?12;25h[38;34H[?25l[30m[48;5;250m8[39;49m[9;1H[?12l[?25h[?12;25h[9;3H[?25l_[?12l[?25h[?12;25h[?25l_[?12l[?25h[?12;25h[?25la[?12l[?25h[?12;25h[?25ls[?12l[?25h[?12;25h[?25lm[?12l[?25h[?12;25h[?25l_[?12l[?25h[?12;25h[9;3H[?25l[38;5;129m__asm__[39;49m[?12l[?25h[?12;25h[?25l([?12l[?25h[?12;25h[?25l[48;5;80m([39;49m)[?12l[?25h[?12;25h[?25l();[?12l[?25h[?12;25h[?25l[1m[91m"[0m[39;49m[38;5;89m);[39;49m[1m[91m [0m[39;49m                                                                                                                                        
[9;12H[?12l[?25h[?12;25h[?25l[38;5;89mm);[39;49m[1m[91m [0m[39;49m[?12l[?25h[?12;25h[?25l[38;5;89mo);[39;49m[1m[91m [0m[39;49m[?12l[?25h[?12;25h[?25l[38;5;89mv);[39;49m[1m[91m [0m[39;49m[?12l[?25h[?12;25h[?25l[38;5;89mq);[39;49m[1m[91m [0m[39;49m[?12l[?25h[?12;25h[?25l[38;5;89m );[39;49m[1m[91m [0m[39;49m[?12l[?25h[?12;25h[?25l[38;5;89m9);[39;49m[1m[91m [0m[39;49m[?12l[?25h[?12;25h[?25l[38;5;89m);[39;49m[1m[91m [0m[39;49m 		[?12l[?25h[?12;25h[?25l[38;5;89m();[39;49m[1m[91m [0m[39;49m[?12l[?25h[?12;25h[?25l[38;5;89m%);[39;49m[1m[91m [0m[39;49m[?12l[?25h[?12;25h[?25l[38;5;89m%);[39;49m[1m[91m [0m[39;49m[?12l[?25h[?12;25h[?25l[38;5;89mr);[39;49m[1m[91m [0m[39;49m[?12l[?25h[?12;25h[?25l[38;5;89ms);[39;49m[1m[91m [0m[39;49m[?12l[?25h[?12;25h[?25l[38;5;89mp);[39;49m[1m[91m [0m[39;49m[?12l[?25h[?12;25h		[?25l[38;5;89m[48;5;80m([39;49m[38;5;89m%%rsp));[39;49m[1m[91m [0m[39;49m[?12l[?25h[?12;25h		[?25l[38;5;89m(%%rsp),);[39;49m[1m[91m [0m[39;49m[?12l[?25h[?12;25h[?25l[38;5;89m );[39;49m[1m[91m [0m[39;49m[?12l[?25h[?12;25h	[?25l[38;5;89m, );[39;49m[1m[91m [0m[39;49m [?12l[?25h[?12;25h[C[?25l[38;5;89m%%rsp, );[39;49m[1m[91m [0m[39;49m 		[?12l[?25h[?12;25h[C[C[C[C[C[C	[?25l[38;5;89m%);[39;49m[1m[91m [0m[39;49m[?12l[?25h[?12;25h[?25l[38;5;89m0);[39;49m[1m[91m [0m[39;49m[?12l[?25h[?12;25h[38;67H[?25l[30m[48;5;250m2PM 0.64[39;49m[9;26H[?12l[?25h[?12;25h[9;11H[?25l[38;5;89m"movq %%rsp, %0"[39;49m);[K[?12l[?25h[?12;25h[?25l:);[?12l[?25h[?12;25h[?25l);[K[?12l[?25h[?12;25h[?25l );[?12l[?25h[?12;25h[?25l:);[?12l[?25h[?12;25h[?25l );[?12l[?25h[?12;25h[?25l[1m[91m"[0m[39;49m[38;5;89m);[39;49m[1m[91m [0m[39;49m                                                                                                                     
[9;31H[?12l[?25h[?12;25h[?25l[38;5;89m=);[39;49m[1m[91m [0m[39;49m[?12l[?25h[?12;25h[?25l[38;5;89mr);[39;49m[1m[91m [0m[39;49m[?12l[?25h[?12;25h[?25l[38;5;89m"=r"[39;49m);[K[?12l[?25h[?12;25h[?25l();[?12l[?25h[?12;25h[?25lr);[?12l[?25h[?12;25h[?25ls);[?12l[?25h[?12;25h[?25lp);[?12l[?25h[?12;25h[?25l[48;5;80m([39;49mrsp));[?12l[?25h[?12;25h[?25l(	[?12l[?25h[?12;25h[39;1H[?25lSaving file /home/epotapo1/i220a/submit/lab8/exercises/rsp/rsp.c...[9;39H[?12l[?25h[?12;25h[39;1H[?25lWrote /home/epotapo1/i220a/submit/lab8/exercises/rsp/rsp.c[K[9;39H[?12l[?25h[?12;25h[38;6H[?25l[30m[48;5;250m----F1  [39;49m[1m[30m[48;5;250mrsp.c       [0m[39;49m[30m[48;5;250m   All L8    Git:[39;49m[9;39H[?12l[?25h[?12;25h[39;1H[K[9;39H[39;1H[K[?1004l[?2004l[?1l>[?12l[?25h[?1049l[23;0;0t[39;49mepotapo1@remote05:~/i220a/submit/lab8/exercises/rsp$ make
cc -Wall -Og -std=c18 -S rsp.c
cc -Wall -Og -std=c18    rsp.c   -o rsp
objdump -d rsp > rsp.dump
epotapo1@remote05:~/i220a/submit/lab8/exercises/rsp$ ./rsp 
&stkVar = 0x7ffd1d04e34c; rsp = 0x7ffd1d04e338
epotapo1@remote05:~/i220a/submit/lab8/exercises/rsp$ ls
Makefile  rsp  rsp.c  rsp.dump	rsp.s
epotapo1@remote05:~/i220a/submit/lab8/exercises/rsp$ emacs rsp.dump 
[?1049h[22;0;0t[?12;25h[?1h=[H[2J[39d[K[?1l>[?12l[?25h[?1049l[23;0;0t[39;49m[?1049h[22;0;0t[?12;25h[?1h=[H[2J[38d[?25l[30m[47m-UUU:----F1  [39;49m[1m[30m[47m*scratch*   [0m[39;49m[30m[47m   All L1     (Fundamental) -------------------------------------------------------------------------------------------------[39;49m
[A[2d[?12l[?25h[?12;25h[39d[?25lLoading /etc/emacs/site-start.d/00debian.el (source)...done[K[H
[?12l[?25h[?12;25h[39;33H[?25l50a2ps.el (source)...[K[H
[?12l[?25h[?12;25h[39;54H[?25ldone[H
[?12l[?25h[?12;25h[39;36H[?25lsymptote.el (source)...[H
[?12l[?25h[?12;25h[39;59H[?25ldone[H
[?12l[?25h[?12;25h[39;36H[?25lutoconf.el (source)...[K[H
[?12l[?25h[?12;25h[39;58H[?25ldone[H
[?12l[?25h[?12;25h[39;35H[?25lcmake-data.el (source)...[K[H
[?12l[?25h[?12;25h[39;60H[?25ldone[H
[?12l[?25h[?12;25h[39;35H[?25ldevhelp.el (source)...[K[H
[?12l[?25h[?12;25h[39;57H[?25ldone[H
[?12l[?25h[?12;25h[39;36H[?25lictionaries-common.el (source)...[H
[?12l[?25h[?12;25h[39;9H[?25ldebian-ispell...[K[H
[?12l[?25h[?12;25h[39;9H[?25l/var/cache/dictionaries-common/emacsen-ispell-default.el (source)...[H
[?12l[?25h[?12;25h[39;77H[?25ldone[H
[?12l[?25h[?12;25h[39;9H[?25ldebian-ispell...done[K[H
[?12l[?25h[?12;25h[39;9H[?25l/var/cache/dictionaries-common/emacsen-ispell-dicts.el (source)...[H
[?12l[?25h[?12;25h[39;75H[?25ldone[H
[?12l[?25h[?12;25h[39;10H[?25letc/emacs/site-start.d/50dictionaries-common[6P[H
[?12l[?25h[?12;25h[39;35H[?25lerlang-mode.el (source)...[K[H
[?12l[?25h[?12;25h[39;61H[?25ldone[H
[?12l[?25h[?12;25h[39;35H[?25lhaskell-mode.el (source)...[K[H
[?12l[?25h[?12;25h[39;10H[?25lusr/share/emacs/site-lisp/elpa/haskel[34@l-mode-16.1/haskell-mode-autoloads[H
[?12l[?25h[?12;25h[39;96H[?25ldone[H
[?12l[?25h[?12;25h[39;10H[?25letc/emacs/site-start.d/50haskell-mode[34P[H
[?12l[?25h[?12;25h[39;35H[?25llatex-cjk-common.el (source)...[H
[?12l[?25h[?12;25h[39;10H[?25lusr/share/emacs/site-lisp/latex-cjk-commo[9@n/cjk-enc[H
[?12l[?25h[?12;25h[39;75H[?25ldone[H
[?12l[?25h[?12;25h[39;10H[?25letc/emacs/site-start.d/50latex-cjk-common[9P[H
[?12l[?25h[?12;25h[39;45H[?25lthai.el (source)...[K[H
[?12l[?25h[?12;25h[39;64H[?25ldone[H
[?12l[?25h[?12;25h[39;35H[?25lpsvn.el (source)...[K[H
[?12l[?25h[?12;25h[39;54H[?25ldone[H
[?12l[?25h[?12;25h[39;36H[?25lython-docutils.el (source)...[H
[?12l[?25h[?12;25h[39;65H[?25ldone[H
[?12l[?25h[?12;25h[39;35H[?25ltcsh.el (source)...[K[H
[?12l[?25h[?12;25h[39;54H[?25ldone[H
[?12l[?25h[?12;25h[39;36H[?25lexlive-lang-english.el (source)...[H
[?12l[?25h[?12;25h[39;70H[?25ldone[H
[?12l[?25h[?12;25h[>0c[?2004h[?1004h[39d[?25lFor information about GNU Emacs and the GNU system, type C-h C-a.[K[H
[?12l[?25h[?12;25h[39d[?25lFor information about GNU Emacs and the GNU system, type C-h C-a.[K[H[7mFile Edit Options Buffers Tools Help                                                                                                                  [0m[39;49m[27m
[A
[K
rsp:     file format elf64-x86-64[K
[K
[K
Disassembly of section .init:[K
[K
0000000000001000 <_init>:[K
    1000:       48 83 ec 08             sub    $0x8,%rsp[K
    1004:       48 8b 05 dd 2f 00 00    mov    0x2fdd(%rip),%rax        # 3fe8 <__gmon_start__>[K
    100b:       48 85 c0                test   %rax,%rax[K
    100e:       74 02                   je     1012 <_init+0x12>[K
    1010:       ff d0                   callq  *%rax[K
    1012:       48 83 c4 08             add    $0x8,%rsp[K
    1016:       c3                      retq[K
[K
Disassembly of section .plt:[K
[K
0000000000001020 <.plt>:[K
    1020:       ff 35 e2 2f 00 00       pushq  0x2fe2(%rip)        # 4008 <_GLOBAL_OFFSET_TABLE_+0x8>[K
    1026:       ff 25 e4 2f 00 00       jmpq   *0x2fe4(%rip)        # 4010 <_GLOBAL_OFFSET_TABLE_+0x10>[K
    102c:       0f 1f 40 00             nopl   0x0(%rax)[K
[K
0000000000001030 <printf@plt>:[K
    1030:       ff 25 e2 2f 00 00       jmpq   *0x2fe2(%rip)        # 4018 <printf@GLIBC_2.2.5>[K
    1036:       68 00 00 00 00          pushq  $0x0[K
    103b:       e9 e0 ff ff ff          jmpq   1020 <.plt>[K
[K
Disassembly of section .plt.got:[K
[K
0000000000001040 <__cxa_finalize@plt>:[K
    1040:       ff 25 b2 2f 00 00       jmpq   *0x2fb2(%rip)        # 3ff8 <__cxa_finalize@GLIBC_2.2.5>[K
    1046:       66 90                   xchg   %ax,%ax[K
[K
Disassembly of section .text:[K
[K
0000000000001050 <_start>:[K
[30m[48;5;250m-UU-:----F1  [39;49m[1m[30m[48;5;250mrsp.dump    [0m[39;49m[30m[48;5;250m   Top L1     (Fundamental) 12:45PM 0.69 ------------------------------------------------------------------------------------[39;49m
[A[2d[?12l[?25h[?12;25h[39d[K[38;34H[?25l[30m[48;5;250m2[39;49m[H

[?12l[?25h[?12;25h[38;34H[?25l[30m[48;5;250m3[39;49m[4;1H[?12l[?25h[?12;25h[38;34H[?25l[30m[48;5;250m4[39;49m[5;1H[?12l[?25h[?12;25h[38;34H[?25l[30m[48;5;250m5[39;49m[6;1H[?12l[?25h[?12;25h[38;34H[?25l[30m[48;5;250m6[39;49m[7;1H[?12l[?25h[?12;25h[38;34H[?25l[30m[48;5;250m7[39;49m[8;1H[?12l[?25h[?12;25h[38;34H[?25l[30m[48;5;250m8[39;49m[9;1H[?12l[?25h[?12;25h[38;34H[?25l[30m[48;5;250m9[39;49m[10;1H[?12l[?25h[?12;25h[38;34H[?25l[30m[48;5;250m10[39;49m[11;1H[?12l[?25h[?12;25h[38;35H[?25l[30m[48;5;250m1[39;49m[12;1H[?12l[?25h[?12;25h[38;35H[?25l[30m[48;5;250m2[39;49m[13;1H[?12l[?25h[?12;25h[38;35H[?25l[30m[48;5;250m3[39;49m[14;1H[?12l[?25h[?12;25h[38;35H[?25l[30m[48;5;250m4[39;49m[15;1H[?12l[?25h[?12;25h[38;35H[?25l[30m[48;5;250m5[39;49m[16;1H[?12l[?25h[?12;25h[38;35H[?25l[30m[48;5;250m6[39;49m[17;1H[?12l[?25h[?12;25h[38;35H[?25l[30m[48;5;250m7[39;49m[18;1H[?12l[?25h[?12;25h[38;35H[?25l[30m[48;5;250m8[39;49m[19;1H[?12l[?25h[?12;25h[38;35H[?25l[30m[48;5;250m9[39;49m[20;1H[?12l[?25h[?12;25h[38;34H[?25l[30m[48;5;250m20[39;49m[21;1H[?12l[?25h[?12;25h[38;35H[?25l[30m[48;5;250m1[39;49m[22;1H[?12l[?25h[?12;25h[38;35H[?25l[30m[48;5;250m2[39;49m[23;1H[?12l[?25h[?12;25h[38;35H[?25l[30m[48;5;250m3[39;49m[24;1H[?12l[?25h[?12;25h[38;35H[?25l[30m[48;5;250m4[39;49m[25;1H[?12l[?25h[?12;25h[38;35H[?25l[30m[48;5;250m5[39;49m[26;1H[?12l[?25h[?12;25h[38;35H[?25l[30m[48;5;250m6[39;49m[27;1H[?12l[?25h[?12;25h[38;35H[?25l[30m[48;5;250m7[39;49m[28;1H[?12l[?25h[?12;25h[38;35H[?25l[30m[48;5;250m8[39;49m[29;1H[?12l[?25h[?12;25h[38;35H[?25l[30m[48;5;250m9[39;49m[30;1H[?12l[?25h[?12;25h[38;34H[?25l[30m[48;5;250m30[39;49m[31;1H[?12l[?25h[?12;25h[38;35H[?25l[30m[48;5;250m1[39;49m[32;1H[?12l[?25h[?12;25h[38;35H[?25l[30m[48;5;250m2[39;49m[33;1H[?12l[?25h[?12;25h[38;35H[?25l[30m[48;5;250m3[39;49m[34;1H[?12l[?25h[?12;25h[38;35H[?25l[30m[48;5;250m4[39;49m[35;1H[?12l[?25h[?12;25h[38;35H[?25l[30m[48;5;250m5[39;49m[36;1H[?12l[?25h[?12;25h[38;35H[?25l[30m[48;5;250m6[39;49m[A[?12l[?25h[?12;25h[1;37r[2;1H[18M[1;39r[20;1H[?25l    1050:       31 ed                   xor    %ebp,%ebp[K
    1052:       49 89 d1                mov    %rdx,%r9[K
    1055:       5e                      pop    %rsi[K
    1056:       48 89 e2                mov    %rsp,%rdx[K
    1059:       48 83 e4 f0             and    $0xfffffffffffffff0,%rsp[K
    105d:       50                      push   %rax[K
    105e:       54                      push   %rsp[K
    105f:       4c 8d 05 6a 01 00 00    lea    0x16a(%rip),%r8        # 11d0 <__libc_csu_fini>[K
    1066:       48 8d 0d 03 01 00 00    lea    0x103(%rip),%rcx        # 1170 <__libc_csu_init>[K
    106d:       48 8d 3d c5 00 00 00    lea    0xc5(%rip),%rdi        # 1139 <main>[K
    1074:       ff 15 66 2f 00 00       callq  *0x2f66(%rip)        # 3fe0 <__libc_start_main@GLIBC_2.2.5>[K
    107a:       f4                      hlt[K
    107b:       0f 1f 44 00 00          nopl   0x0(%rax,%rax,1)[K
[K
0000000000001080 <deregister_tm_clones>:[K
    1080:       48 8d 3d a9 2f 00 00    lea    0x2fa9(%rip),%rdi        # 4030 <__TMC_END__>[K
    1087:       48 8d 05 a2 2f 00 00    lea    0x2fa2(%rip),%rax        # 4030 <__TMC_END__>[K
    108e:       48 39 f8                cmp    %rdi,%rax[K[38;29H[30m[48;5;250m 7% L37[39;49m[20;1H[?12l[?25h[?12;25h[38;35H[?25l[30m[48;5;250m8[39;49m[21;1H[?12l[?25h[?12;25h[38;35H[?25l[30m[48;5;250m9[39;49m[22;1H[?12l[?25h[?12;25h[38;34H[?25l[30m[48;5;250m40[39;49m[23;1H[?12l[?25h[?12;25h[38;35H[?25l[30m[48;5;250m1[39;49m[24;1H[?12l[?25h[?12;25h[38;35H[?25l[30m[48;5;250m2[39;49m[25;1H[?12l[?25h[?12;25h[38;35H[?25l[30m[48;5;250m3[39;49m[26;1H[?12l[?25h[?12;25h[38;35H[?25l[30m[48;5;250m4[39;49m[27;1H[?12l[?25h[?12;25h[38;35H[?25l[30m[48;5;250m5[39;49m[28;1H[?12l[?25h[?12;25h[38;35H[?25l[30m[48;5;250m6[39;49m[29;1H[?12l[?25h[?12;25h[38;35H[?25l[30m[48;5;250m7[39;49m[30;1H[?12l[?25h[?12;25h[38;35H[?25l[30m[48;5;250m8[39;49m[31;1H[?12l[?25h[?12;25h[38;35H[?25l[30m[48;5;250m9[39;49m[32;1H[?12l[?25h[?12;25h[38;34H[?25l[30m[48;5;250m50[39;49m[33;1H[?12l[?25h[?12;25h[38;35H[?25l[30m[48;5;250m1[39;49m[34;1H[?12l[?25h[?12;25h[38;35H[?25l[30m[48;5;250m2[39;49m[35;1H[?12l[?25h[?12;25h[38;35H[?25l[30m[48;5;250m3[39;49m[36;1H[?12l[?25h[?12;25h[38;35H[?25l[30m[48;5;250m4[39;49m[A[?12l[?25h[?12;25h[1;37r[2;1H[18M[1;39r[20;1H[?25l    1091:       74 15                   je     10a8 <deregister_tm_clones+0x28>[K
    1093:       48 8b 05 3e 2f 00 00    mov    0x2f3e(%rip),%rax        # 3fd8 <_ITM_deregisterTMCloneTable>[K
    109a:       48 85 c0                test   %rax,%rax[K
    109d:       74 09                   je     10a8 <deregister_tm_clones+0x28>[K
    109f:       ff e0                   jmpq   *%rax[K
    10a1:       0f 1f 80 00 00 00 00    nopl   0x0(%rax)[K
    10a8:       c3                      retq[K
    10a9:       0f 1f 80 00 00 00 00    nopl   0x0(%rax)[K
[K
00000000000010b0 <register_tm_clones>:[K
    10b0:       48 8d 3d 79 2f 00 00    lea    0x2f79(%rip),%rdi        # 4030 <__TMC_END__>[K
    10b7:       48 8d 35 72 2f 00 00    lea    0x2f72(%rip),%rsi        # 4030 <__TMC_END__>[K
    10be:       48 29 fe                sub    %rdi,%rsi[K
    10c1:       48 c1 fe 03             sar    $0x3,%rsi[K
    10c5:       48 89 f0                mov    %rsi,%rax[K
    10c8:       48 c1 e8 3f             shr    $0x3f,%rax[K
    10cc:       48 01 c6                add    %rax,%rsi[K
    10cf:       48 d1 fe                sar    %rsi[K[38;29H[30m[48;5;250m17% L55[39;49m[20;1H[?12l[?25h[?12;25h[38;35H[?25l[30m[48;5;250m6[39;49m[21;1H[?12l[?25h[?12;25h[38;35H[?25l[30m[48;5;250m7[39;49m[22;1H[?12l[?25h[?12;25h[38;35H[?25l[30m[48;5;250m8[39;49m[23;1H[?12l[?25h[?12;25h[38;35H[?25l[30m[48;5;250m9[39;49m[24;1H[?12l[?25h[?12;25h[38;34H[?25l[30m[48;5;250m60[39;49m[25;1H[?12l[?25h[?12;25h[38;35H[?25l[30m[48;5;250m1[39;49m[26;1H[?12l[?25h[?12;25h[38;35H[?25l[30m[48;5;250m2[39;49m[27;1H[?12l[?25h[?12;25h[38;35H[?25l[30m[48;5;250m3[39;49m[28;1H[?12l[?25h[?12;25h[38;35H[?25l[30m[48;5;250m4[39;49m[29;1H[?12l[?25h[?12;25h[38;35H[?25l[30m[48;5;250m5[39;49m[30;1H[?12l[?25h[?12;25h[38;35H[?25l[30m[48;5;250m6[39;49m[31;1H[?12l[?25h[?12;25h[38;35H[?25l[30m[48;5;250m7[39;49m[32;1H[?12l[?25h[?12;25h[38;35H[?25l[30m[48;5;250m8[39;49m[33;1H[?12l[?25h[?12;25h[38;35H[?25l[30m[48;5;250m9[39;49m[34;1H[?12l[?25h[?12;25h[38;34H[?25l[30m[48;5;250m70[39;49m[35;1H[?12l[?25h[?12;25h[38;35H[?25l[30m[48;5;250m1[39;49m[36;1H[?12l[?25h[?12;25h[38;35H[?25l[30m[48;5;250m2[39;49m[A[?12l[?25h[?12;25h[1;37r[2;1H[18M[1;39r[20;1H[?25l    10d2:       74 14                   je     10e8 <register_tm_clones+0x38>[K
    10d4:       48 8b 05 15 2f 00 00    mov    0x2f15(%rip),%rax        # 3ff0 <_ITM_registerTMCloneTable>[K
    10db:       48 85 c0                test   %rax,%rax[K
    10de:       74 08                   je     10e8 <register_tm_clones+0x38>[K
    10e0:       ff e0                   jmpq   *%rax[K
    10e2:       66 0f 1f 44 00 00       nopw   0x0(%rax,%rax,1)[K
    10e8:       c3                      retq[K
    10e9:       0f 1f 80 00 00 00 00    nopl   0x0(%rax)[K
[K
00000000000010f0 <__do_global_dtors_aux>:[K
    10f0:       80 3d 39 2f 00 00 00    cmpb   $0x0,0x2f39(%rip)        # 4030 <__TMC_END__>[K
    10f7:       75 2f                   jne    1128 <__do_global_dtors_aux+0x38>[K
    10f9:       55                      push   %rbp[K
    10fa:       48 83 3d f6 2e 00 00    cmpq   $0x0,0x2ef6(%rip)        # 3ff8 <__cxa_finalize@GLIBC_2.2.5>[K
    1101:       00[K
    1102:       48 89 e5                mov    %rsp,%rbp[K
    1105:       74 0c                   je     1113 <__do_global_dtors_aux+0x23>[K
    1107:       48 8b 3d 1a 2f 00 00    mov    0x2f1a(%rip),%rdi        # 4028 <__dso_handle>[K[38;29H[30m[48;5;250m30% L73[39;49m[20;1H[?12l[?25h[?12;25h[38;35H[?25l[30m[48;5;250m4[39;49m[21;1H[?12l[?25h[?12;25h[38;35H[?25l[30m[48;5;250m5[39;49m[22;1H[?12l[?25h[?12;25h[38;35H[?25l[30m[48;5;250m7[39;49m[24;1H[?12l[?25h[?12;25h[38;35H[?25l[30m[48;5;250m9[39;49m[26;1H[?12l[?25h[?12;25h[38;34H[?25l[30m[48;5;250m80[39;49m[27;1H[?12l[?25h[?12;25h[38;35H[?25l[30m[48;5;250m1[39;49m[28;1H[?12l[?25h[?12;25h[38;35H[?25l[30m[48;5;250m2[39;49m[29;1H[?12l[?25h[?12;25h[38;35H[?25l[30m[48;5;250m3[39;49m[30;1H[?12l[?25h[?12;25h[38;35H[?25l[30m[48;5;250m5[39;49m[32;1H[?12l[?25h[?12;25h[38;35H[?25l[30m[48;5;250m7[39;49m[34;1H[?12l[?25h[?12;25h[38;35H[?25l[30m[48;5;250m9[39;49m[36;1H[?12l[?25h[?12;25h[1;37r[2;1H[18M[1;39r[20;1H[?25l    110e:       e8 2d ff ff ff          callq  1040 <__cxa_finalize@plt>[K
    1113:       e8 68 ff ff ff          callq  1080 <deregister_tm_clones>[K
    1118:       c6 05 11 2f 00 00 01    movb   $0x1,0x2f11(%rip)        # 4030 <__TMC_END__>[K
    111f:       5d                      pop    %rbp[K
    1120:       c3                      retq[K
    1121:       0f 1f 80 00 00 00 00    nopl   0x0(%rax)[K
    1128:       c3                      retq[K
    1129:       0f 1f 80 00 00 00 00    nopl   0x0(%rax)[K
[K
0000000000001130 <frame_dummy>:[K
    1130:       e9 7b ff ff ff          jmpq   10b0 <register_tm_clones>[K
[K
0000000000001135 <get_rsp>:[K
    1135:       48 89 e0                mov    %rsp,%rax[K
    1138:       c3                      retq[K
[K
0000000000001139 <main>:[K
    1139:       48 83 ec 18             sub    $0x18,%rsp[K[38;29H[30m[48;5;250m43% L91[39;49m[20;1H[?12l[?25h[?12;25h[38;35H[?25l[30m[48;5;250m3[39;49m[22;1H[?12l[?25h[?12;25h[38;35H[?25l[30m[48;5;250m5[39;49m[24;1H[?12l[?25h[?12;25h[38;35H[?25l[30m[48;5;250m7[39;49m[26;1H[?12l[?25h[?12;25h[38;35H[?25l[30m[48;5;250m8[39;49m[27;1H[?12l[?25h[?12;25h[38;35H[?25l[30m[48;5;250m9[39;49m[28;1H[?12l[?25h[?12;25h[38;34H[?25l[30m[48;5;250m100[39;49m[29;1H[?12l[?25h[?12;25h[38;36H[?25l[30m[48;5;250m1[39;49m[30;1H[?12l[?25h[?12;25h[38;36H[?25l[30m[48;5;250m2[39;49m[31;1H[?12l[?25h[?12;25h[38;36H[?25l[30m[48;5;250m3[39;49m[32;1H[?12l[?25h[?12;25h[38;36H[?25l[30m[48;5;250m4[39;49m[33;1H[?12l[?25h[?12;25h[38;36H[?25l[30m[48;5;250m5[39;49m[34;1H[?12l[?25h[?12;25h[38;36H[?25l[30m[48;5;250m6[39;49m[35;1H[?12l[?25h[?12;25h[38;36H[?25l[30m[48;5;250m7[39;49m[36;1H[?12l[?25h[?12;25h[1;37r[2;1H[18M[1;39r[20;1H[?25l    113d:       e8 f3 ff ff ff          callq  1135 <get_rsp>[K
    1142:       48 8d 74 24 0c          lea    0xc(%rsp),%rsi[K
    1147:       48 89 c2                mov    %rax,%rdx[K
    114a:       48 8d 3d b3 0e 00 00    lea    0xeb3(%rip),%rdi        # 2004 <_IO_stdin_used+0x4>[K
    1151:       b8 00 00 00 00          mov    $0x0,%eax[K
    1156:       e8 d5 fe ff ff          callq  1030 <printf@plt>[K
    115b:       b8 00 00 00 00          mov    $0x0,%eax[K
    1160:       48 83 c4 18             add    $0x18,%rsp[K
    1164:       c3                      retq[K
    1165:       66 2e 0f 1f 84 00 00    nopw   %cs:0x0(%rax,%rax,1)[K
    116c:       00 00 00[K
    116f:       90                      nop[K
[K
0000000000001170 <__libc_csu_init>:[K
    1170:       41 57                   push   %r15[K
    1172:       49 89 d7                mov    %rdx,%r15[K
    1175:       41 56                   push   %r14[K
    1177:       49 89 f6                mov    %rsi,%r14[K[38;29H[30m[48;5;250m57% L109[39;49m[20;1H[?12l[?25h[?12;25h[38;35H[?25l[30m[48;5;250m10[39;49m[21;1H[?12l[?25h[?12;25h[38;36H[?25l[30m[48;5;250m1[39;49m[22;1H[?12l[?25h[?12;25h[38;36H[?25l[30m[48;5;250m2[39;49m[23;1H[?12l[?25h[?12;25h[38;36H[?25l[30m[48;5;250m3[39;49m[24;1H[?12l[?25h[?12;25h[38;36H[?25l[30m[48;5;250m4[39;49m[25;1H[?12l[?25h[?12;25h[38;36H[?25l[30m[48;5;250m5[39;49m[26;1H[?12l[?25h[?12;25h[38;36H[?25l[30m[48;5;250m6[39;49m[27;1H[?12l[?25h[?12;25h[38;36H[?25l[30m[48;5;250m7[39;49m[28;1H[?12l[?25h[?12;25h[38;36H[?25l[30m[48;5;250m8[39;49m[29;1H[?12l[?25h[?12;25h[38;36H[?25l[30m[48;5;250m9[39;49m[30;1H[?12l[?25h[?12;25h[38;35H[?25l[30m[48;5;250m20[39;49m[31;1H[?12l[?25h[?12;25h[38;35H[?25l[30m[48;5;250m19[39;49m[30;1H[?12l[?25h[?12;25h[38;36H[?25l[30m[48;5;250m8[39;49m[29;1H[?12l[?25h[?12;25h[38;36H[?25l[30m[48;5;250m7[39;49m[28;1H[?12l[?25h[?12;25h[38;36H[?25l[30m[48;5;250m6[39;49m[27;1H[?12l[?25h[?12;25h[38;36H[?25l[30m[48;5;250m5[39;49m[26;1H[?12l[?25h[?12;25h[38;36H[?25l[30m[48;5;250m4[39;49m[25;1H[?12l[?25h[?12;25h[38;36H[?25l[30m[48;5;250m3[39;49m[24;1H[?12l[?25h[?12;25h[38;36H[?25l[30m[48;5;250m2[39;49m[23;1H[?12l[?25h[?12;25h[38;36H[?25l[30m[48;5;250m1[39;49m[22;1H[?12l[?25h[?12;25h[38;36H[?25l[30m[48;5;250m0[39;49m[21;1H[?12l[?25h[?12;25h[38;35H[?25l[30m[48;5;250m09[39;49m[20;1H[?12l[?25h[?12;25h[38;35H[?25l[30m[48;5;250m10[39;49m[21;1H[?12l[?25h[?12;25h[38;36H[?25l[30m[48;5;250m1[39;49m[22;1H[?12l[?25h[?12;25h[38;36H[?25l[30m[48;5;250m2[39;49m[23;1H[?12l[?25h[?12;25h[38;36H[?25l[30m[48;5;250m3[39;49m[24;1H[?12l[?25h[?12;25h[38;36H[?25l[30m[48;5;250m4[39;49m[25;1H[?12l[?25h[?12;25h[38;36H[?25l[30m[48;5;250m5[39;49m[26;1H[?12l[?25h[?12;25h[38;36H[?25l[30m[48;5;250m6[39;49m[27;1H[?12l[?25h[?12;25h[38;36H[?25l[30m[48;5;250m7[39;49m[28;1H[?12l[?25h[?12;25h[38;36H[?25l[30m[48;5;250m8[39;49m[29;1H[?12l[?25h[?12;25h[38;36H[?25l[30m[48;5;250m9[39;49m[30;1H[?12l[?25h[?12;25h[38;35H[?25l[30m[48;5;250m20[39;49m[31;1H[?12l[?25h[?12;25h[38;36H[?25l[30m[48;5;250m1[39;49m[32;1H[?12l[?25h[?12;25h[38;36H[?25l[30m[48;5;250m2[39;49m[33;1H[?12l[?25h[?12;25h[38;36H[?25l[30m[48;5;250m3[39;49m[34;1H[?12l[?25h[?12;25h[38;36H[?25l[30m[48;5;250m4[39;49m[35;1H[?12l[?25h[?12;25h[38;36H[?25l[30m[48;5;250m5[39;49m[36;1H[?12l[?25h[?12;25h[38;36H[?25l[30m[48;5;250m6[39;49m[A[?12l[?25h[?12;25h[1;37r[2;1H[18M[1;39r[20;1H[?25l    117a:       41 55                   push   %r13[K
    117c:       41 89 fd                mov    %edi,%r13d[K
    117f:       41 54                   push   %r12[K
    1181:       4c 8d 25 60 2c 00 00    lea    0x2c60(%rip),%r12        # 3de8 <__frame_dummy_init_array_entry>[K
    1188:       55                      push   %rbp[K
    1189:       48 8d 2d 60 2c 00 00    lea    0x2c60(%rip),%rbp        # 3df0 <__init_array_end>[K
    1190:       53                      push   %rbx[K
    1191:       4c 29 e5                sub    %r12,%rbp[K
    1194:       48 83 ec 08             sub    $0x8,%rsp[K
    1198:       e8 63 fe ff ff          callq  1000 <_init>[K
    119d:       48 c1 fd 03             sar    $0x3,%rbp[K
    11a1:       74 1b                   je     11be <__libc_csu_init+0x4e>[K
    11a3:       31 db                   xor    %ebx,%ebx[K
    11a5:       0f 1f 00                nopl   (%rax)[K
    11a8:       4c 89 fa                mov    %r15,%rdx[K
    11ab:       4c 89 f6                mov    %r14,%rsi[K
    11ae:       44 89 ef                mov    %r13d,%edi[K
    11b1:       41 ff 14 dc             callq  *(%r12,%rbx,8)[K[38;29H[30m[48;5;250m66% L127[39;49m[20;1H[?12l[?25h[?12;25h[38;36H[?25l[30m[48;5;250m8[39;49m[21;1H[?12l[?25h[?12;25h[38;36H[?25l[30m[48;5;250m9[39;49m[22;1H[?12l[?25h[?12;25h[38;35H[?25l[30m[48;5;250m30[39;49m[23;1H[?12l[?25h[?12;25h[38;36H[?25l[30m[48;5;250m1[39;49m[24;1H[?12l[?25h[?12;25h[38;36H[?25l[30m[48;5;250m2[39;49m[25;1H[?12l[?25h[?12;25h[38;36H[?25l[30m[48;5;250m3[39;49m[26;1H[?12l[?25h[?12;25h[38;36H[?25l[30m[48;5;250m4[39;49m[27;1H[?12l[?25h[?12;25h[38;36H[?25l[30m[48;5;250m5[39;49m[28;1H[?12l[?25h[?12;25h[38;36H[?25l[30m[48;5;250m6[39;49m[29;1H[?12l[?25h[?12;25h[38;36H[?25l[30m[48;5;250m7[39;49m[30;1H[?12l[?25h[?12;25h[38;36H[?25l[30m[48;5;250m8[39;49m[31;1H[?12l[?25h[?12;25h[38;36H[?25l[30m[48;5;250m9[39;49m[32;1H[?12l[?25h[?12;25h[38;35H[?25l[30m[48;5;250m40[39;49m[33;1H[?12l[?25h[?12;25h[38;36H[?25l[30m[48;5;250m1[39;49m[34;1H[?12l[?25h[?12;25h[38;36H[?25l[30m[48;5;250m2[39;49m[35;1H[?12l[?25h[?12;25h[38;36H[?25l[30m[48;5;250m3[39;49m[36;1H[?12l[?25h[?12;25h[38;36H[?25l[30m[48;5;250m4[39;49m[A[?12l[?25h[?12;25h[1;37r[2;1H[18M[1;39r[20;1H[?25l    11b5:       48 83 c3 01             add    $0x1,%rbx[K
    11b9:       48 39 dd                cmp    %rbx,%rbp[K
    11bc:       75 ea                   jne    11a8 <__libc_csu_init+0x38>[K
    11be:       48 83 c4 08             add    $0x8,%rsp[K
    11c2:       5b                      pop    %rbx[K
    11c3:       5d                      pop    %rbp[K
    11c4:       41 5c                   pop    %r12[K
    11c6:       41 5d                   pop    %r13[K
    11c8:       41 5e                   pop    %r14[K
    11ca:       41 5f                   pop    %r15[K
    11cc:       c3                      retq[K
    11cd:       0f 1f 00                nopl   (%rax)[K
[K
00000000000011d0 <__libc_csu_fini>:[K
    11d0:       c3                      retq[K
[K
Disassembly of section .fini:[K
[K[38;29H[30m[48;5;250m77% L145[39;49m[20;1H[?12l[?25h[?12;25h[38;36H[?25l[30m[48;5;250m6[39;49m[21;1H[?12l[?25h[?12;25h[38;36H[?25l[30m[48;5;250m7[39;49m[22;1H[?12l[?25h[?12;25h[38;36H[?25l[30m[48;5;250m8[39;49m[23;1H[?12l[?25h[?12;25h[38;36H[?25l[30m[48;5;250m9[39;49m[24;1H[?12l[?25h[?12;25h[38;35H[?25l[30m[48;5;250m50[39;49m[25;1H[?12l[?25h[?12;25h[38;36H[?25l[30m[48;5;250m1[39;49m[26;1H[?12l[?25h[?12;25h[38;36H[?25l[30m[48;5;250m2[39;49m[27;1H[?12l[?25h[?12;25h[38;36H[?25l[30m[48;5;250m3[39;49m[28;1H[?12l[?25h[?12;25h[38;36H[?25l[30m[48;5;250m4[39;49m[29;1H[?12l[?25h[?12;25h[38;36H[?25l[30m[48;5;250m5[39;49m[30;1H[?12l[?25h[?12;25h[38;36H[?25l[30m[48;5;250m6[39;49m[31;1H[?12l[?25h[?12;25h[38;36H[?25l[30m[48;5;250m7[39;49m[32;1H[?12l[?25h[?12;25h[38;36H[?25l[30m[48;5;250m8[39;49m[33;1H[?12l[?25h[?12;25h[38;36H[?25l[30m[48;5;250m9[39;49m[34;1H[?12l[?25h[?12;25h[38;35H[?25l[30m[48;5;250m60[39;49m[35;1H[?12l[?25h[?12;25h[38;36H[?25l[30m[48;5;250m1[39;49m[36;1H[?12l[?25h[?12;25h[38;36H[?25l[30m[48;5;250m2[39;49m[A[?12l[?25h[?12;25h[1;36r[2;1H[18M[1;39r[19;1H[K
[?25l00000000000011d4 <_fini>:[K
    11d4:       48 83 ec 08             sub    $0x8,%rsp[K
    11d8:       48 83 c4 08             add    $0x8,%rsp[K
    11dc:       c3                      retq[K
[K
[K
[K
[K
[K
[K
[K
[K
[K
[K
[K
[K
[K[38;29H[30m[48;5;250mBot L163[39;49m[20;1H[?12l[?25h[?12;25h[38;36H[?25l[30m[48;5;250m4[39;49m[21;1H[?12l[?25h[?12;25h[38;36H[?25l[30m[48;5;250m5[39;49m[22;1H[?12l[?25h[?12;25h[38;36H[?25l[30m[48;5;250m6[39;49m[23;1H[?12l[?25h[?12;25h[38;36H[?25l[30m[48;5;250m7[39;49m[24;1H[?12l[?25h[?12;25h[38;36H[?25l[30m[48;5;250m6[39;49m[23;1H[?12l[?25h[?12;25h[38;36H[?25l[30m[48;5;250m5[39;49m[22;1H[?12l[?25h[?12;25h[38;36H[?25l[30m[48;5;250m4[39;49m[21;1H[?12l[?25h[?12;25h[38;36H[?25l[30m[48;5;250m3[39;49m[20;1H[?12l[?25h[?12;25h[38;36H[?25l[30m[48;5;250m2[39;49m[19;1H[?12l[?25h[?12;25h[38;36H[?25l[30m[48;5;250m1[39;49m[18;1H[?12l[?25h[?12;25h[38;36H[?25l[30m[48;5;250m0[39;49m[17;1H[?12l[?25h[?12;25h[38;35H[?25l[30m[48;5;250m59[39;49m[16;1H[?12l[?25h[?12;25h[38;36H[?25l[30m[48;5;250m8[39;49m[15;1H[?12l[?25h[?12;25h[38;36H[?25l[30m[48;5;250m7[39;49m[14;1H[?12l[?25h[?12;25h[38;36H[?25l[30m[48;5;250m6[39;49m[13;1H[?12l[?25h[?12;25h[38;36H[?25l[30m[48;5;250m5[39;49m[12;1H[?12l[?25h[?12;25h[38;36H[?25l[30m[48;5;250m4[39;49m[11;1H[?12l[?25h[?12;25h[38;36H[?25l[30m[48;5;250m3[39;49m[10;1H[?12l[?25h[?12;25h[38;36H[?25l[30m[48;5;250m2[39;49m[9;1H[?12l[?25h[?12;25h[38;36H[?25l[30m[48;5;250m1[39;49m[8;1H[?12l[?25h[?12;25h[38;36H[?25l[30m[48;5;250m0[39;49m[7;1H[?12l[?25h[?12;25h[38;35H[?25l[30m[48;5;250m49[39;49m[6;1H[?12l[?25h[?12;25h[38;36H[?25l[30m[48;5;250m8[39;49m[5;1H[?12l[?25h[?12;25h[38;36H[?25l[30m[48;5;250m7[39;49m[4;1H[?12l[?25h[?12;25h[38;36H[?25l[30m[48;5;250m6[39;49m[H

[?12l[?25h[?12;25h[38;36H[?25l[30m[48;5;250m5[39;49m[H
[?12l[?25h[?12;25h[1;37r[2;1H[19L[1;39r[2;1H[?25l    1177:       49 89 f6                mov    %rsi,%r14[K
    117a:       41 55                   push   %r13[K
    117c:       41 89 fd                mov    %edi,%r13d[K
    117f:       41 54                   push   %r12[K
    1181:       4c 8d 25 60 2c 00 00    lea    0x2c60(%rip),%r12        # 3de8 <__frame_dummy_init_array_entry>[K
    1188:       55                      push   %rbp[K
    1189:       48 8d 2d 60 2c 00 00    lea    0x2c60(%rip),%rbp        # 3df0 <__init_array_end>[K
    1190:       53                      push   %rbx[K
    1191:       4c 29 e5                sub    %r12,%rbp[K
    1194:       48 83 ec 08             sub    $0x8,%rsp[K
    1198:       e8 63 fe ff ff          callq  1000 <_init>[K
    119d:       48 c1 fd 03             sar    $0x3,%rbp[K
    11a1:       74 1b                   je     11be <__libc_csu_init+0x4e>[K
    11a3:       31 db                   xor    %ebx,%ebx[K
    11a5:       0f 1f 00                nopl   (%rax)[K
    11a8:       4c 89 fa                mov    %r15,%rdx[K
    11ab:       4c 89 f6                mov    %r14,%rsi[K
    11ae:       44 89 ef                mov    %r13d,%edi[K
    11b1:       41 ff 14 dc             callq  *(%r12,%rbx,8)[K[38;29H[30m[48;5;250m76% L144[39;49m[20;1H[?12l[?25h[?12;25h[38;36H[?25l[30m[48;5;250m3[39;49m[19;1H[?12l[?25h[?12;25h[38;36H[?25l[30m[48;5;250m2[39;49m[18;1H[?12l[?25h[?12;25h[38;36H[?25l[30m[48;5;250m1[39;49m[17;1H[?12l[?25h[?12;25h[38;36H[?25l[30m[48;5;250m0[39;49m[16;1H[?12l[?25h[?12;25h[38;35H[?25l[30m[48;5;250m39[39;49m[15;1H[?12l[?25h[?12;25h[38;36H[?25l[30m[48;5;250m8[39;49m[14;1H[?12l[?25h[?12;25h[38;36H[?25l[30m[48;5;250m7[39;49m[13;1H[?12l[?25h[?12;25h[38;36H[?25l[30m[48;5;250m6[39;49m[12;1H[?12l[?25h[?12;25h[38;36H[?25l[30m[48;5;250m5[39;49m[11;1H[?12l[?25h[?12;25h[38;36H[?25l[30m[48;5;250m4[39;49m[10;1H[?12l[?25h[?12;25h[38;36H[?25l[30m[48;5;250m3[39;49m[9;1H[?12l[?25h[?12;25h[38;36H[?25l[30m[48;5;250m2[39;49m[8;1H[?12l[?25h[?12;25h[38;36H[?25l[30m[48;5;250m1[39;49m[7;1H[?12l[?25h[?12;25h[38;36H[?25l[30m[48;5;250m0[39;49m[6;1H[?12l[?25h[?12;25h[38;35H[?25l[30m[48;5;250m29[39;49m[5;1H[?12l[?25h[?12;25h[38;36H[?25l[30m[48;5;250m8[39;49m[4;1H[?12l[?25h[?12;25h[38;36H[?25l[30m[48;5;250m7[39;49m[H

[?12l[?25h[?12;25h[38;36H[?25l[30m[48;5;250m6[39;49m[H
[?12l[?25h[?12;25h[1;37r[2;1H[19L[1;39r[2;1H[?25l0000000000001139 <main>:[K
    1139:       48 83 ec 18             sub    $0x18,%rsp[K
    113d:       e8 f3 ff ff ff          callq  1135 <get_rsp>[K
    1142:       48 8d 74 24 0c          lea    0xc(%rsp),%rsi[K
    1147:       48 89 c2                mov    %rax,%rdx[K
    114a:       48 8d 3d b3 0e 00 00    lea    0xeb3(%rip),%rdi        # 2004 <_IO_stdin_used+0x4>[K
    1151:       b8 00 00 00 00          mov    $0x0,%eax[K
    1156:       e8 d5 fe ff ff          callq  1030 <printf@plt>[K
    115b:       b8 00 00 00 00          mov    $0x0,%eax[K
    1160:       48 83 c4 18             add    $0x18,%rsp[K
    1164:       c3                      retq[K
    1165:       66 2e 0f 1f 84 00 00    nopw   %cs:0x0(%rax,%rax,1)[K
    116c:       00 00 00[K
    116f:       90                      nop[K
[K
0000000000001170 <__libc_csu_init>:[K
    1170:       41 57                   push   %r15[K
    1172:       49 89 d7                mov    %rdx,%r15[K
    1175:       41 56                   push   %r14[K[38;29H[30m[48;5;250m65% L125[39;49m[20;1H[?12l[?25h[?12;25h[38;36H[?25l[30m[48;5;250m4[39;49m[19;1H[?12l[?25h[?12;25h[38;36H[?25l[30m[48;5;250m3[39;49m[18;1H[?12l[?25h[?12;25h[38;36H[?25l[30m[48;5;250m2[39;49m[17;1H[?12l[?25h[?12;25h[38;36H[?25l[30m[48;5;250m1[39;49m[16;1H[?12l[?25h[?12;25h[38;36H[?25l[30m[48;5;250m0[39;49m[15;1H[?12l[?25h[?12;25h[38;35H[?25l[30m[48;5;250m19[39;49m[14;1H[?12l[?25h[?12;25h[38;36H[?25l[30m[48;5;250m8[39;49m[13;1H[?12l[?25h[?12;25h[38;36H[?25l[30m[48;5;250m7[39;49m[12;1H[?12l[?25h[?12;25h[38;36H[?25l[30m[48;5;250m6[39;49m[11;1H[?12l[?25h[?12;25h[38;36H[?25l[30m[48;5;250m5[39;49m[10;1H[?12l[?25h[?12;25h[38;36H[?25l[30m[48;5;250m4[39;49m[9;1H[?12l[?25h[?12;25h[38;36H[?25l[30m[48;5;250m3[39;49m[8;1H[?12l[?25h[?12;25h[38;36H[?25l[30m[48;5;250m2[39;49m[7;1H[?12l[?25h[?12;25h[38;36H[?25l[30m[48;5;250m1[39;49m[6;1H[?12l[?25h[?12;25h[38;36H[?25l[30m[48;5;250m0[39;49m[5;1H[?12l[?25h[?12;25h[38;35H[?25l[30m[48;5;250m09[39;49m[4;1H[?12l[?25h[?12;25h[38;36H[?25l[30m[48;5;250m8[39;49m[H

[?12l[?25h[?12;25h[38;36H[?25l[30m[48;5;250m7[39;49m[H
[?12l[?25h[?12;25h[1;37r[2;1H[19L[1;39r[2;1H[?25l    1102:       48 89 e5                mov    %rsp,%rbp[K
    1105:       74 0c                   je     1113 <__do_global_dtors_aux+0x23>[K
    1107:       48 8b 3d 1a 2f 00 00    mov    0x2f1a(%rip),%rdi        # 4028 <__dso_handle>[K
    110e:       e8 2d ff ff ff          callq  1040 <__cxa_finalize@plt>[K
    1113:       e8 68 ff ff ff          callq  1080 <deregister_tm_clones>[K
    1118:       c6 05 11 2f 00 00 01    movb   $0x1,0x2f11(%rip)        # 4030 <__TMC_END__>[K
    111f:       5d                      pop    %rbp[K
    1120:       c3                      retq[K
    1121:       0f 1f 80 00 00 00 00    nopl   0x0(%rax)[K
    1128:       c3                      retq[K
    1129:       0f 1f 80 00 00 00 00    nopl   0x0(%rax)[K
[K
0000000000001130 <frame_dummy>:[K
    1130:       e9 7b ff ff ff          jmpq   10b0 <register_tm_clones>[K
[K
0000000000001135 <get_rsp>:[K
    1135:       48 89 e0                mov    %rsp,%rax[K
    1138:       c3                      retq[K
[K[38;29H[30m[48;5;250m54% L106[39;49m[20;1H[?12l[?25h[?12;25h[38;36H[?25l[30m[48;5;250m5[39;49m[19;1H[?12l[?25h[?12;25h[38;36H[?25l[30m[48;5;250m4[39;49m[18;1H[?12l[?25h[?12;25h[38;36H[?25l[30m[48;5;250m3[39;49m[17;1H[?12l[?25h[?12;25h[38;36H[?25l[30m[48;5;250m4[39;49m[18;1H[?12l[?25h[?12;25h[38;36H[?25l[30m[48;5;250m5[39;49m[19;1H[?12l[?25h[?12;25h[38;36H[?25l[30m[48;5;250m4[39;49m[18;1H[?12l[?25h[?12;25h[38;58H[?25l[30m[48;5;250m6PM 0.78[39;49m[18;1H[?12l[?25h[?12;25h[39d[K[?1004l[?2004l[?1l>[?12l[?25h[?1049l[23;0;0t[39;49mepotapo1@remote05:~/i220a/submit/lab8/exercises/rsp$ emacs rsp.dump 
[?1049h[22;0;0t[?12;25h[?1h=[H[2J[39d[K[?1l>[?12l[?25h[?1049l[23;0;0t[39;49m[?1049h[22;0;0t[?12;25h[?1h=[H[2J[38d[?25l[30m[47m-UUU:----F1  [39;49m[1m[30m[47m*scratch*   [0m[39;49m[30m[47m   All L1     (Fundamental) -------------------------------------------------------------------------------------------------[39;49m
[A[2d[?12l[?25h[?12;25h[39d[?25lLoading /etc/emacs/site-start.d/00debian.el (source)...done[K[H
[?12l[?25h[?12;25h[39;33H[?25l50a2ps.el (source)...[K[H
[?12l[?25h[?12;25h[39;54H[?25ldone[H
[?12l[?25h[?12;25h[39;36H[?25lsymptote.el (source)...[H
[?12l[?25h[?12;25h[39;59H[?25ldone[H
[?12l[?25h[?12;25h[39;36H[?25lutoconf.el (source)...[K[H
[?12l[?25h[?12;25h[39;58H[?25ldone[H
[?12l[?25h[?12;25h[39;35H[?25lcmake-data.el (source)...[K[H
[?12l[?25h[?12;25h[39;60H[?25ldone[H
[?12l[?25h[?12;25h[39;35H[?25ldevhelp.el (source)...[K[H
[?12l[?25h[?12;25h[39;57H[?25ldone[H
[?12l[?25h[?12;25h[39;36H[?25lictionaries-common.el (source)...[H
[?12l[?25h[?12;25h[39;9H[?25ldebian-ispell...[K[H
[?12l[?25h[?12;25h[39;9H[?25l/var/cache/dictionaries-common/emacsen-ispell-default.el (source)...[H
[?12l[?25h[?12;25h[39;77H[?25ldone[H
[?12l[?25h[?12;25h[39;9H[?25ldebian-ispell...done[K[H
[?12l[?25h[?12;25h[39;9H[?25l/var/cache/dictionaries-common/emacsen-ispell-dicts.el (source)...[H
[?12l[?25h[?12;25h[39;75H[?25ldone[H
[?12l[?25h[?12;25h[39;10H[?25letc/emacs/site-start.d/50dictionaries-common[6P[H
[?12l[?25h[?12;25h[39;35H[?25lerlang-mode.el (source)...[K[H
[?12l[?25h[?12;25h[39;61H[?25ldone[H
[?12l[?25h[?12;25h[39;35H[?25lhaskell-mode.el (source)...[K[H
[?12l[?25h[?12;25h[39;10H[?25lusr/share/emacs/site-lisp/elpa/haskel[34@l-mode-16.1/haskell-mode-autoloads[H
[?12l[?25h[?12;25h[39;96H[?25ldone[H
[?12l[?25h[?12;25h[39;10H[?25letc/emacs/site-start.d/50haskell-mode[34P[H
[?12l[?25h[?12;25h[39;35H[?25llatex-cjk-common.el (source)...[H
[?12l[?25h[?12;25h[39;10H[?25lusr/share/emacs/site-lisp/latex-cjk-commo[9@n/cjk-enc[H
[?12l[?25h[?12;25h[39;75H[?25ldone[H
[?12l[?25h[?12;25h[39;10H[?25letc/emacs/site-start.d/50latex-cjk-common[9P[H
[?12l[?25h[?12;25h[39;45H[?25lthai.el (source)...[K[H
[?12l[?25h[?12;25h[39;64H[?25ldone[H
[?12l[?25h[?12;25h[39;35H[?25lpsvn.el (source)...[K[H
[?12l[?25h[?12;25h[39;54H[?25ldone[H
[?12l[?25h[?12;25h[39;36H[?25lython-docutils.el (source)...[H
[?12l[?25h[?12;25h[39;65H[?25ldone[H
[?12l[?25h[?12;25h[39;35H[?25ltcsh.el (source)...[K[H
[?12l[?25h[?12;25h[39;54H[?25ldone[H
[?12l[?25h[?12;25h[39;36H[?25lexlive-lang-english.el (source)...[H
[?12l[?25h[?12;25h[39;70H[?25ldone[H
[?12l[?25h[?12;25h[>0c[?2004h[?1004h[39d[?25lFor information about GNU Emacs and the GNU system, type C-h C-a.[K[H
[?12l[?25h[?12;25h[39d[?25lFor information about GNU Emacs and the GNU system, type C-h C-a.[K[H[7mFile Edit Options Buffers Tools Help                                                                                                                  [0m[39;49m[27m
[A
[K
rsp:     file format elf64-x86-64[K
[K
[K
Disassembly of section .init:[K
[K
0000000000001000 <_init>:[K
    1000:       48 83 ec 08             sub    $0x8,%rsp[K
    1004:       48 8b 05 dd 2f 00 00    mov    0x2fdd(%rip),%rax        # 3fe8 <__gmon_start__>[K
    100b:       48 85 c0                test   %rax,%rax[K
    100e:       74 02                   je     1012 <_init+0x12>[K
    1010:       ff d0                   callq  *%rax[K
    1012:       48 83 c4 08             add    $0x8,%rsp[K
    1016:       c3                      retq[K
[K
Disassembly of section .plt:[K
[K
0000000000001020 <.plt>:[K
    1020:       ff 35 e2 2f 00 00       pushq  0x2fe2(%rip)        # 4008 <_GLOBAL_OFFSET_TABLE_+0x8>[K
    1026:       ff 25 e4 2f 00 00       jmpq   *0x2fe4(%rip)        # 4010 <_GLOBAL_OFFSET_TABLE_+0x10>[K
    102c:       0f 1f 40 00             nopl   0x0(%rax)[K
[K
0000000000001030 <printf@plt>:[K
    1030:       ff 25 e2 2f 00 00       jmpq   *0x2fe2(%rip)        # 4018 <printf@GLIBC_2.2.5>[K
    1036:       68 00 00 00 00          pushq  $0x0[K
    103b:       e9 e0 ff ff ff          jmpq   1020 <.plt>[K
[K
Disassembly of section .plt.got:[K
[K
0000000000001040 <__cxa_finalize@plt>:[K
    1040:       ff 25 b2 2f 00 00       jmpq   *0x2fb2(%rip)        # 3ff8 <__cxa_finalize@GLIBC_2.2.5>[K
    1046:       66 90                   xchg   %ax,%ax[K
[K
Disassembly of section .text:[K
[K
0000000000001050 <_start>:[K
[30m[48;5;250m-UU-:----F1  [39;49m[1m[30m[48;5;250mrsp.dump    [0m[39;49m[30m[48;5;250m   Top L1     (Fundamental) 12:47PM 0.42 ------------------------------------------------------------------------------------[39;49m
[A[2d[?12l[?25h[?12;25h[39d[K[38;34H[?25l[30m[48;5;250m2[39;49m[H

[?12l[?25h[?12;25h[38;34H[?25l[30m[48;5;250m3[39;49m[4;1H[?12l[?25h[?12;25h[38;34H[?25l[30m[48;5;250m4[39;49m[5;1H[?12l[?25h[?12;25h[38;34H[?25l[30m[48;5;250m5[39;49m[6;1H[?12l[?25h[?12;25h[38;34H[?25l[30m[48;5;250m6[39;49m[7;1H[?12l[?25h[?12;25h[38;34H[?25l[30m[48;5;250m7[39;49m[8;1H[?12l[?25h[?12;25h[38;34H[?25l[30m[48;5;250m8[39;49m[9;1H[?12l[?25h[?12;25h[38;34H[?25l[30m[48;5;250m9[39;49m[10;1H[?12l[?25h[?12;25h[38;34H[?25l[30m[48;5;250m10[39;49m[11;1H[?12l[?25h[?12;25h[38;35H[?25l[30m[48;5;250m1[39;49m[12;1H[?12l[?25h[?12;25h[38;35H[?25l[30m[48;5;250m2[39;49m[13;1H[?12l[?25h[?12;25h[38;35H[?25l[30m[48;5;250m3[39;49m[14;1H[?12l[?25h[?12;25h[38;35H[?25l[30m[48;5;250m4[39;49m[15;1H[?12l[?25h[?12;25h[38;35H[?25l[30m[48;5;250m5[39;49m[16;1H[?12l[?25h[?12;25h[38;35H[?25l[30m[48;5;250m6[39;49m[17;1H[?12l[?25h[?12;25h[38;35H[?25l[30m[48;5;250m7[39;49m[18;1H[?12l[?25h[?12;25h[38;35H[?25l[30m[48;5;250m8[39;49m[19;1H[?12l[?25h[?12;25h[38;35H[?25l[30m[48;5;250m9[39;49m[20;1H[?12l[?25h[?12;25h[38;34H[?25l[30m[48;5;250m20[39;49m[21;1H[?12l[?25h[?12;25h[38;35H[?25l[30m[48;5;250m1[39;49m[22;1H[?12l[?25h[?12;25h[38;35H[?25l[30m[48;5;250m2[39;49m[23;1H[?12l[?25h[?12;25h[38;35H[?25l[30m[48;5;250m3[39;49m[24;1H[?12l[?25h[?12;25h[38;35H[?25l[30m[48;5;250m4[39;49m[25;1H[?12l[?25h[?12;25h[38;35H[?25l[30m[48;5;250m5[39;49m[26;1H[?12l[?25h[?12;25h[38;35H[?25l[30m[48;5;250m6[39;49m[27;1H[?12l[?25h[?12;25h[38;35H[?25l[30m[48;5;250m7[39;49m[28;1H[?12l[?25h[?12;25h[38;35H[?25l[30m[48;5;250m8[39;49m[29;1H[?12l[?25h[?12;25h[38;34H[?25l[30m[48;5;250m30[39;49m[31;1H[?12l[?25h[?12;25h[38;35H[?25l[30m[48;5;250m2[39;49m[33;1H[?12l[?25h[?12;25h[38;35H[?25l[30m[48;5;250m3[39;49m[34;1H[?12l[?25h[?12;25h[38;35H[?25l[30m[48;5;250m4[39;49m[35;1H[?12l[?25h[?12;25h[38;35H[?25l[30m[48;5;250m5[39;49m[36;1H[?12l[?25h[?12;25h[38;35H[?25l[30m[48;5;250m6[39;49m[A[?12l[?25h[?12;25h[1;37r[2;1H[18M[1;39r[20;1H[?25l    1050:       31 ed                   xor    %ebp,%ebp[K
    1052:       49 89 d1                mov    %rdx,%r9[K
    1055:       5e                      pop    %rsi[K
    1056:       48 89 e2                mov    %rsp,%rdx[K
    1059:       48 83 e4 f0             and    $0xfffffffffffffff0,%rsp[K
    105d:       50                      push   %rax[K
    105e:       54                      push   %rsp[K
    105f:       4c 8d 05 6a 01 00 00    lea    0x16a(%rip),%r8        # 11d0 <__libc_csu_fini>[K
    1066:       48 8d 0d 03 01 00 00    lea    0x103(%rip),%rcx        # 1170 <__libc_csu_init>[K
    106d:       48 8d 3d c5 00 00 00    lea    0xc5(%rip),%rdi        # 1139 <main>[K
    1074:       ff 15 66 2f 00 00       callq  *0x2f66(%rip)        # 3fe0 <__libc_start_main@GLIBC_2.2.5>[K
    107a:       f4                      hlt[K
    107b:       0f 1f 44 00 00          nopl   0x0(%rax,%rax,1)[K
[K
0000000000001080 <deregister_tm_clones>:[K
    1080:       48 8d 3d a9 2f 00 00    lea    0x2fa9(%rip),%rdi        # 4030 <__TMC_END__>[K
    1087:       48 8d 05 a2 2f 00 00    lea    0x2fa2(%rip),%rax        # 4030 <__TMC_END__>[K
    108e:       48 39 f8                cmp    %rdi,%rax[K[38;29H[30m[48;5;250m 7% L37[39;49m[20;1H[?12l[?25h[?12;25h[38;35H[?25l[30m[48;5;250m8[39;49m[21;1H[?12l[?25h[?12;25h[38;35H[?25l[30m[48;5;250m9[39;49m[22;1H[?12l[?25h[?12;25h[38;34H[?25l[30m[48;5;250m40[39;49m[23;1H[?12l[?25h[?12;25h[38;35H[?25l[30m[48;5;250m1[39;49m[24;1H[?12l[?25h[?12;25h[38;35H[?25l[30m[48;5;250m2[39;49m[25;1H[?12l[?25h[?12;25h[38;35H[?25l[30m[48;5;250m3[39;49m[26;1H[?12l[?25h[?12;25h[38;35H[?25l[30m[48;5;250m4[39;49m[27;1H[?12l[?25h[?12;25h[38;35H[?25l[30m[48;5;250m5[39;49m[28;1H[?12l[?25h[?12;25h[38;35H[?25l[30m[48;5;250m6[39;49m[29;1H[?12l[?25h[?12;25h[38;35H[?25l[30m[48;5;250m7[39;49m[30;1H[?12l[?25h[?12;25h[38;35H[?25l[30m[48;5;250m8[39;49m[31;1H[?12l[?25h[?12;25h[38;35H[?25l[30m[48;5;250m9[39;49m[32;1H[?12l[?25h[?12;25h[38;34H[?25l[30m[48;5;250m50[39;49m[33;1H[?12l[?25h[?12;25h[38;35H[?25l[30m[48;5;250m1[39;49m[34;1H[?12l[?25h[?12;25h[38;35H[?25l[30m[48;5;250m2[39;49m[35;1H[?12l[?25h[?12;25h[38;35H[?25l[30m[48;5;250m3[39;49m[36;1H[?12l[?25h[?12;25h[38;35H[?25l[30m[48;5;250m4[39;49m[A[?12l[?25h[?12;25h[1;37r[2;1H[18M[1;39r[20;1H[?25l    1091:       74 15                   je     10a8 <deregister_tm_clones+0x28>[K
    1093:       48 8b 05 3e 2f 00 00    mov    0x2f3e(%rip),%rax        # 3fd8 <_ITM_deregisterTMCloneTable>[K
    109a:       48 85 c0                test   %rax,%rax[K
    109d:       74 09                   je     10a8 <deregister_tm_clones+0x28>[K
    109f:       ff e0                   jmpq   *%rax[K
    10a1:       0f 1f 80 00 00 00 00    nopl   0x0(%rax)[K
    10a8:       c3                      retq[K
    10a9:       0f 1f 80 00 00 00 00    nopl   0x0(%rax)[K
[K
00000000000010b0 <register_tm_clones>:[K
    10b0:       48 8d 3d 79 2f 00 00    lea    0x2f79(%rip),%rdi        # 4030 <__TMC_END__>[K
    10b7:       48 8d 35 72 2f 00 00    lea    0x2f72(%rip),%rsi        # 4030 <__TMC_END__>[K
    10be:       48 29 fe                sub    %rdi,%rsi[K
    10c1:       48 c1 fe 03             sar    $0x3,%rsi[K
    10c5:       48 89 f0                mov    %rsi,%rax[K
    10c8:       48 c1 e8 3f             shr    $0x3f,%rax[K
    10cc:       48 01 c6                add    %rax,%rsi[K
    10cf:       48 d1 fe                sar    %rsi[K[38;29H[30m[48;5;250m17% L55[39;49m[20;1H[?12l[?25h[?12;25h[38;35H[?25l[30m[48;5;250m6[39;49m[21;1H[?12l[?25h[?12;25h[38;35H[?25l[30m[48;5;250m7[39;49m[22;1H[?12l[?25h[?12;25h[38;35H[?25l[30m[48;5;250m8[39;49m[23;1H[?12l[?25h[?12;25h[38;35H[?25l[30m[48;5;250m9[39;49m[24;1H[?12l[?25h[?12;25h[38;34H[?25l[30m[48;5;250m60[39;49m[25;1H[?12l[?25h[?12;25h[38;35H[?25l[30m[48;5;250m1[39;49m[26;1H[?12l[?25h[?12;25h[38;35H[?25l[30m[48;5;250m2[39;49m[27;1H[?12l[?25h[?12;25h[38;35H[?25l[30m[48;5;250m3[39;49m[28;1H[?12l[?25h[?12;25h[38;35H[?25l[30m[48;5;250m4[39;49m[29;1H[?12l[?25h[?12;25h[38;35H[?25l[30m[48;5;250m5[39;49m[30;1H[?12l[?25h[?12;25h[38;35H[?25l[30m[48;5;250m6[39;49m[31;1H[?12l[?25h[?12;25h[38;35H[?25l[30m[48;5;250m7[39;49m[32;1H[?12l[?25h[?12;25h[38;35H[?25l[30m[48;5;250m8[39;49m[33;1H[?12l[?25h[?12;25h[38;35H[?25l[30m[48;5;250m9[39;49m[34;1H[?12l[?25h[?12;25h[38;34H[?25l[30m[48;5;250m70[39;49m[35;1H[?12l[?25h[?12;25h[38;35H[?25l[30m[48;5;250m1[39;49m[36;1H[?12l[?25h[?12;25h[38;35H[?25l[30m[48;5;250m2[39;49m[A[?12l[?25h[?12;25h[1;37r[2;1H[18M[1;39r[20;1H[?25l    10d2:       74 14                   je     10e8 <register_tm_clones+0x38>[K
    10d4:       48 8b 05 15 2f 00 00    mov    0x2f15(%rip),%rax        # 3ff0 <_ITM_registerTMCloneTable>[K
    10db:       48 85 c0                test   %rax,%rax[K
    10de:       74 08                   je     10e8 <register_tm_clones+0x38>[K
    10e0:       ff e0                   jmpq   *%rax[K
    10e2:       66 0f 1f 44 00 00       nopw   0x0(%rax,%rax,1)[K
    10e8:       c3                      retq[K
    10e9:       0f 1f 80 00 00 00 00    nopl   0x0(%rax)[K
[K
00000000000010f0 <__do_global_dtors_aux>:[K
    10f0:       80 3d 39 2f 00 00 00    cmpb   $0x0,0x2f39(%rip)        # 4030 <__TMC_END__>[K
    10f7:       75 2f                   jne    1128 <__do_global_dtors_aux+0x38>[K
    10f9:       55                      push   %rbp[K
    10fa:       48 83 3d f6 2e 00 00    cmpq   $0x0,0x2ef6(%rip)        # 3ff8 <__cxa_finalize@GLIBC_2.2.5>[K
    1101:       00[K
    1102:       48 89 e5                mov    %rsp,%rbp[K
    1105:       74 0c                   je     1113 <__do_global_dtors_aux+0x23>[K
    1107:       48 8b 3d 1a 2f 00 00    mov    0x2f1a(%rip),%rdi        # 4028 <__dso_handle>[K[38;29H[30m[48;5;250m30% L73[39;49m[20;1H[?12l[?25h[?12;25h[38;35H[?25l[30m[48;5;250m4[39;49m[21;1H[?12l[?25h[?12;25h[38;35H[?25l[30m[48;5;250m5[39;49m[22;1H[?12l[?25h[?12;25h[38;35H[?25l[30m[48;5;250m6[39;49m[23;1H[?12l[?25h[?12;25h[38;35H[?25l[30m[48;5;250m7[39;49m[24;1H[?12l[?25h[?12;25h[38;35H[?25l[30m[48;5;250m8[39;49m[25;1H[?12l[?25h[?12;25h[38;35H[?25l[30m[48;5;250m9[39;49m[26;1H[?12l[?25h[?12;25h[38;34H[?25l[30m[48;5;250m80[39;49m[27;1H[?12l[?25h[?12;25h[38;35H[?25l[30m[48;5;250m1[39;49m[28;1H[?12l[?25h[?12;25h[38;35H[?25l[30m[48;5;250m2[39;49m[29;1H[?12l[?25h[?12;25h[38;35H[?25l[30m[48;5;250m3[39;49m[30;1H[?12l[?25h[?12;25h[38;35H[?25l[30m[48;5;250m4[39;49m[31;1H[?12l[?25h[?12;25h[38;35H[?25l[30m[48;5;250m5[39;49m[32;1H[?12l[?25h[?12;25h[38;35H[?25l[30m[48;5;250m6[39;49m[33;1H[?12l[?25h[?12;25h[38;35H[?25l[30m[48;5;250m7[39;49m[34;1H[?12l[?25h[?12;25h[38;35H[?25l[30m[48;5;250m8[39;49m[35;1H[?12l[?25h[?12;25h[38;35H[?25l[30m[48;5;250m9[39;49m[36;1H[?12l[?25h[?12;25h[38;34H[?25l[30m[48;5;250m90[39;49m[A[?12l[?25h[?12;25h[1;37r[2;1H[18M[1;39r[20;1H[?25l    110e:       e8 2d ff ff ff          callq  1040 <__cxa_finalize@plt>[K
    1113:       e8 68 ff ff ff          callq  1080 <deregister_tm_clones>[K
    1118:       c6 05 11 2f 00 00 01    movb   $0x1,0x2f11(%rip)        # 4030 <__TMC_END__>[K
    111f:       5d                      pop    %rbp[K
    1120:       c3                      retq[K
    1121:       0f 1f 80 00 00 00 00    nopl   0x0(%rax)[K
    1128:       c3                      retq[K
    1129:       0f 1f 80 00 00 00 00    nopl   0x0(%rax)[K
[K
0000000000001130 <frame_dummy>:[K
    1130:       e9 7b ff ff ff          jmpq   10b0 <register_tm_clones>[K
[K
0000000000001135 <get_rsp>:[K
    1135:       48 89 e0                mov    %rsp,%rax[K
    1138:       c3                      retq[K
[K
0000000000001139 <main>:[K
    1139:       48 83 ec 18             sub    $0x18,%rsp[K[38;29H[30m[48;5;250m43% L91[39;49m[20;1H[?12l[?25h[?12;25h[38;35H[?25l[30m[48;5;250m2[39;49m[21;1H[?12l[?25h[?12;25h[38;35H[?25l[30m[48;5;250m3[39;49m[22;1H[?12l[?25h[?12;25h[38;35H[?25l[30m[48;5;250m4[39;49m[23;1H[?12l[?25h[?12;25h[38;35H[?25l[30m[48;5;250m5[39;49m[24;1H[?12l[?25h[?12;25h[38;35H[?25l[30m[48;5;250m6[39;49m[25;1H[?12l[?25h[?12;25h[38;35H[?25l[30m[48;5;250m7[39;49m[26;1H[?12l[?25h[?12;25h[38;35H[?25l[30m[48;5;250m8[39;49m[27;1H[?12l[?25h[?12;25h[38;35H[?25l[30m[48;5;250m9[39;49m[28;1H[?12l[?25h[?12;25h[38;34H[?25l[30m[48;5;250m100[39;49m[29;1H[?12l[?25h[?12;25h[38;36H[?25l[30m[48;5;250m1[39;49m[30;1H[?12l[?25h[?12;25h[38;36H[?25l[30m[48;5;250m2[39;49m[31;1H[?12l[?25h[?12;25h[38;36H[?25l[30m[48;5;250m3[39;49m[32;1H[?12l[?25h[?12;25h[38;36H[?25l[30m[48;5;250m4[39;49m[33;1H[?12l[?25h[?12;25h[38;36H[?25l[30m[48;5;250m5[39;49m[34;1H[?12l[?25h[?12;25h[38;36H[?25l[30m[48;5;250m6[39;49m[35;1H[?12l[?25h[?12;25h[38;36H[?25l[30m[48;5;250m7[39;49m[36;1H[?12l[?25h[?12;25h[38;36H[?25l[30m[48;5;250m8[39;49m[A[?12l[?25h[?12;25h[1;37r[2;1H[18M[1;39r[20;1H[?25l    113d:       e8 f3 ff ff ff          callq  1135 <get_rsp>[K
    1142:       48 8d 74 24 0c          lea    0xc(%rsp),%rsi[K
    1147:       48 89 c2                mov    %rax,%rdx[K
    114a:       48 8d 3d b3 0e 00 00    lea    0xeb3(%rip),%rdi        # 2004 <_IO_stdin_used+0x4>[K
    1151:       b8 00 00 00 00          mov    $0x0,%eax[K
    1156:       e8 d5 fe ff ff          callq  1030 <printf@plt>[K
    115b:       b8 00 00 00 00          mov    $0x0,%eax[K
    1160:       48 83 c4 18             add    $0x18,%rsp[K
    1164:       c3                      retq[K
    1165:       66 2e 0f 1f 84 00 00    nopw   %cs:0x0(%rax,%rax,1)[K
    116c:       00 00 00[K
    116f:       90                      nop[K
[K
0000000000001170 <__libc_csu_init>:[K
    1170:       41 57                   push   %r15[K
    1172:       49 89 d7                mov    %rdx,%r15[K
    1175:       41 56                   push   %r14[K
    1177:       49 89 f6                mov    %rsi,%r14[K[38;29H[30m[48;5;250m57% L109[39;49m[20;1H[?12l[?25h[?12;25h[38;35H[?25l[30m[48;5;250m10[39;49m[21;1H[?12l[?25h[?12;25h[38;36H[?25l[30m[48;5;250m1[39;49m[22;1H[?12l[?25h[?12;25h[38;36H[?25l[30m[48;5;250m0[39;49m[21;1H[?12l[?25h[?12;25h[38;35H[?25l[30m[48;5;250m09[39;49m[20;1H[?12l[?25h[?12;25h[38;36H[?25l[30m[48;5;250m8[39;49m[19;1H[?12l[?25h[?12;25h[38;36H[?25l[30m[48;5;250m7[39;49m[18;1H[?12l[?25h[?12;25h[38;36H[?25l[30m[48;5;250m6[39;49m[17;1H[?12l[?25h[?12;25h[38;36H[?25l[30m[48;5;250m5[39;49m[16;1H[?12l[?25h[?12;25h[38;36H[?25l[30m[48;5;250m4[39;49m[15;1H[?12l[?25h[?12;25h[38;36H[?25l[30m[48;5;250m3[39;49m[14;1H[?12l[?25h[?12;25h[38;36H[?25l[30m[48;5;250m4[39;49m[15;1H[?12l[?25h[?12;25h[38;36H[?25l[30m[48;5;250m5[39;49m[16;1H[?12l[?25h[?12;25h[38;58H[?25l[30m[48;5;250m8PM 0.28[39;49m[16;1H[?12l[?25h[?12;25h[39d[K[?1004l[?2004l[?1l>[?12l[?25h[?1049l[23;0;0t[39;49mepotapo1@remote05:~/i220a/submit/lab8/exercises/rsp$ cd ../..
epotapo1@remote05:~/i220a/submit/lab8$ exit

Script done on 2021-10-28 12:48:55-04:00 [COMMAND_EXIT_CODE="0"]
